SF:/root/autodl-tmp/zjj/p/ditto-llm/crates/ditto-core/src/bin/ditto-catalog-dashboard.rs
FN:286,_RNCNCNvCslQMMUIzigPE_23ditto_catalog_dashboard18summarize_providers1_00B5_
FN:341,_RNCNCNvCslQMMUIzigPE_23ditto_catalog_dashboard18summarize_providers6_00B5_
FN:405,_RNCNvCslQMMUIzigPE_23ditto_catalog_dashboard15expectation_map0B3_
FN:86,_RNCNvCslQMMUIzigPE_23ditto_catalog_dashboard16render_dashboard0B3_
FN:164,_RNCNvCslQMMUIzigPE_23ditto_catalog_dashboard16render_dashboards0_0B3_
FN:175,_RNCNvCslQMMUIzigPE_23ditto_catalog_dashboard16render_dashboards1_0B3_
FN:91,_RNCNvCslQMMUIzigPE_23ditto_catalog_dashboard16render_dashboards_0B3_
FN:263,_RNCNvCslQMMUIzigPE_23ditto_catalog_dashboard18summarize_provider0B3_
FN:273,_RNCNvCslQMMUIzigPE_23ditto_catalog_dashboard18summarize_providers0_0B3_
FN:283,_RNCNvCslQMMUIzigPE_23ditto_catalog_dashboard18summarize_providers1_0B3_
FN:288,_RNCNvCslQMMUIzigPE_23ditto_catalog_dashboard18summarize_providers2_0B3_
FN:291,_RNCNvCslQMMUIzigPE_23ditto_catalog_dashboard18summarize_providers3_0B3_
FN:315,_RNCNvCslQMMUIzigPE_23ditto_catalog_dashboard18summarize_providers4_0B3_
FN:337,_RNCNvCslQMMUIzigPE_23ditto_catalog_dashboard18summarize_providers5_0B3_
FN:339,_RNCNvCslQMMUIzigPE_23ditto_catalog_dashboard18summarize_providers6_0B3_
FN:361,_RNCNvCslQMMUIzigPE_23ditto_catalog_dashboard18summarize_providers7_0B3_
FN:363,_RNCNvCslQMMUIzigPE_23ditto_catalog_dashboard18summarize_providers8_0B3_
FN:265,_RNCNvCslQMMUIzigPE_23ditto_catalog_dashboard18summarize_providers_0B3_
FN:373,_RNCNvCslQMMUIzigPE_23ditto_catalog_dashboard23load_reference_catalogs0B3_
FN:377,_RNCNvCslQMMUIzigPE_23ditto_catalog_dashboard23load_reference_catalogss0_0B3_
FN:381,_RNCNvCslQMMUIzigPE_23ditto_catalog_dashboard23load_reference_catalogss1_0B3_
FN:396,_RNCNvCslQMMUIzigPE_23ditto_catalog_dashboard23load_reference_catalogss2_0B3_
FN:375,_RNCNvCslQMMUIzigPE_23ditto_catalog_dashboard23load_reference_catalogss_0B3_
FN:25,_RNCNvCslQMMUIzigPE_23ditto_catalog_dashboard4main0B3_
FN:48,_RNCNvCslQMMUIzigPE_23ditto_catalog_dashboard4mains_0B3_
FN:425,_RNvCslQMMUIzigPE_23ditto_catalog_dashboard12format_items
FN:417,_RNvCslQMMUIzigPE_23ditto_catalog_dashboard12status_label
FN:402,_RNvCslQMMUIzigPE_23ditto_catalog_dashboard15expectation_map
FN:75,_RNvCslQMMUIzigPE_23ditto_catalog_dashboard16render_dashboard
FN:443,_RNvCslQMMUIzigPE_23ditto_catalog_dashboard18normalize_newlines
FN:257,_RNvCslQMMUIzigPE_23ditto_catalog_dashboard18summarize_provider
FN:432,_RNvCslQMMUIzigPE_23ditto_catalog_dashboard22format_items_truncated
FN:367,_RNvCslQMMUIzigPE_23ditto_catalog_dashboard23load_reference_catalogs
FN:15,_RNvCslQMMUIzigPE_23ditto_catalog_dashboard4main
FN:409,_RNvCslQMMUIzigPE_23ditto_catalog_dashboard9bool_cell
FN:413,_RNvCslQMMUIzigPE_23ditto_catalog_dashboard9bool_word
FNDA:0,_RNCNCNvCslQMMUIzigPE_23ditto_catalog_dashboard18summarize_providers1_00B5_
FNDA:0,_RNCNCNvCslQMMUIzigPE_23ditto_catalog_dashboard18summarize_providers6_00B5_
FNDA:0,_RNCNvCslQMMUIzigPE_23ditto_catalog_dashboard15expectation_map0B3_
FNDA:0,_RNCNvCslQMMUIzigPE_23ditto_catalog_dashboard16render_dashboard0B3_
FNDA:0,_RNCNvCslQMMUIzigPE_23ditto_catalog_dashboard16render_dashboards0_0B3_
FNDA:0,_RNCNvCslQMMUIzigPE_23ditto_catalog_dashboard16render_dashboards1_0B3_
FNDA:0,_RNCNvCslQMMUIzigPE_23ditto_catalog_dashboard16render_dashboards_0B3_
FNDA:0,_RNCNvCslQMMUIzigPE_23ditto_catalog_dashboard18summarize_provider0B3_
FNDA:0,_RNCNvCslQMMUIzigPE_23ditto_catalog_dashboard18summarize_providers0_0B3_
FNDA:0,_RNCNvCslQMMUIzigPE_23ditto_catalog_dashboard18summarize_providers1_0B3_
FNDA:0,_RNCNvCslQMMUIzigPE_23ditto_catalog_dashboard18summarize_providers2_0B3_
FNDA:0,_RNCNvCslQMMUIzigPE_23ditto_catalog_dashboard18summarize_providers3_0B3_
FNDA:0,_RNCNvCslQMMUIzigPE_23ditto_catalog_dashboard18summarize_providers4_0B3_
FNDA:0,_RNCNvCslQMMUIzigPE_23ditto_catalog_dashboard18summarize_providers5_0B3_
FNDA:0,_RNCNvCslQMMUIzigPE_23ditto_catalog_dashboard18summarize_providers6_0B3_
FNDA:0,_RNCNvCslQMMUIzigPE_23ditto_catalog_dashboard18summarize_providers7_0B3_
FNDA:0,_RNCNvCslQMMUIzigPE_23ditto_catalog_dashboard18summarize_providers8_0B3_
FNDA:0,_RNCNvCslQMMUIzigPE_23ditto_catalog_dashboard18summarize_providers_0B3_
FNDA:0,_RNCNvCslQMMUIzigPE_23ditto_catalog_dashboard23load_reference_catalogs0B3_
FNDA:0,_RNCNvCslQMMUIzigPE_23ditto_catalog_dashboard23load_reference_catalogss0_0B3_
FNDA:0,_RNCNvCslQMMUIzigPE_23ditto_catalog_dashboard23load_reference_catalogss1_0B3_
FNDA:0,_RNCNvCslQMMUIzigPE_23ditto_catalog_dashboard23load_reference_catalogss2_0B3_
FNDA:0,_RNCNvCslQMMUIzigPE_23ditto_catalog_dashboard23load_reference_catalogss_0B3_
FNDA:0,_RNCNvCslQMMUIzigPE_23ditto_catalog_dashboard4main0B3_
FNDA:0,_RNCNvCslQMMUIzigPE_23ditto_catalog_dashboard4mains_0B3_
FNDA:0,_RNvCslQMMUIzigPE_23ditto_catalog_dashboard12format_items
FNDA:0,_RNvCslQMMUIzigPE_23ditto_catalog_dashboard12status_label
FNDA:0,_RNvCslQMMUIzigPE_23ditto_catalog_dashboard15expectation_map
FNDA:0,_RNvCslQMMUIzigPE_23ditto_catalog_dashboard16render_dashboard
FNDA:0,_RNvCslQMMUIzigPE_23ditto_catalog_dashboard18normalize_newlines
FNDA:0,_RNvCslQMMUIzigPE_23ditto_catalog_dashboard18summarize_provider
FNDA:0,_RNvCslQMMUIzigPE_23ditto_catalog_dashboard22format_items_truncated
FNDA:0,_RNvCslQMMUIzigPE_23ditto_catalog_dashboard23load_reference_catalogs
FNDA:0,_RNvCslQMMUIzigPE_23ditto_catalog_dashboard4main
FNDA:0,_RNvCslQMMUIzigPE_23ditto_catalog_dashboard9bool_cell
FNDA:0,_RNvCslQMMUIzigPE_23ditto_catalog_dashboard9bool_word
FNF:36
FNH:0
DA:15,0
DA:16,0
DA:17,0
DA:19,0
DA:20,0
DA:21,0
DA:22,0
DA:23,0
DA:24,0
DA:25,0
DA:26,0
DA:28,0
DA:29,0
DA:33,0
DA:34,0
DA:36,0
DA:37,0
DA:38,0
DA:39,0
DA:40,0
DA:41,0
DA:42,0
DA:43,0
DA:44,0
DA:46,0
DA:47,0
DA:48,0
DA:49,0
DA:51,0
DA:52,0
DA:75,0
DA:76,0
DA:77,0
DA:78,0
DA:80,0
DA:81,0
DA:82,0
DA:83,0
DA:84,0
DA:85,0
DA:86,0
DA:89,0
DA:90,0
DA:91,0
DA:92,0
DA:93,0
DA:94,0
DA:95,0
DA:96,0
DA:98,0
DA:99,0
DA:101,0
DA:102,0
DA:103,0
DA:104,0
DA:105,0
DA:108,0
DA:109,0
DA:110,0
DA:113,0
DA:114,0
DA:115,0
DA:116,0
DA:117,0
DA:118,0
DA:121,0
DA:122,0
DA:123,0
DA:124,0
DA:125,0
DA:126,0
DA:131,0
DA:133,0
DA:134,0
DA:137,0
DA:138,0
DA:142,0
DA:143,0
DA:144,0
DA:145,0
DA:148,0
DA:151,0
DA:152,0
DA:153,0
DA:154,0
DA:155,0
DA:156,0
DA:157,0
DA:158,0
DA:160,0
DA:161,0
DA:162,0
DA:163,0
DA:164,0
DA:165,0
DA:167,0
DA:168,0
DA:169,0
DA:171,0
DA:172,0
DA:173,0
DA:174,0
DA:175,0
DA:176,0
DA:178,0
DA:179,0
DA:180,0
DA:184,0
DA:185,0
DA:186,0
DA:188,0
DA:189,0
DA:190,0
DA:191,0
DA:193,0
DA:194,0
DA:195,0
DA:199,0
DA:200,0
DA:201,0
DA:202,0
DA:205,0
DA:206,0
DA:207,0
DA:208,0
DA:209,0
DA:211,0
DA:213,0
DA:214,0
DA:215,0
DA:217,0
DA:219,0
DA:220,0
DA:221,0
DA:223,0
DA:225,0
DA:226,0
DA:227,0
DA:229,0
DA:231,0
DA:232,0
DA:233,0
DA:235,0
DA:237,0
DA:239,0
DA:240,0
DA:241,0
DA:243,0
DA:245,0
DA:246,0
DA:247,0
DA:249,0
DA:251,0
DA:254,0
DA:255,0
DA:257,0
DA:258,0
DA:259,0
DA:260,0
DA:261,0
DA:262,0
DA:263,0
DA:264,0
DA:265,0
DA:266,0
DA:268,0
DA:269,0
DA:270,0
DA:271,0
DA:272,0
DA:273,0
DA:274,0
DA:275,0
DA:276,0
DA:277,0
DA:278,0
DA:281,0
DA:282,0
DA:283,0
DA:284,0
DA:285,0
DA:286,0
DA:287,0
DA:288,0
DA:289,0
DA:291,0
DA:292,0
DA:293,0
DA:294,0
DA:295,0
DA:296,0
DA:297,0
DA:299,0
DA:300,0
DA:301,0
DA:302,0
DA:303,0
DA:305,0
DA:306,0
DA:307,0
DA:308,0
DA:309,0
DA:311,0
DA:312,0
DA:313,0
DA:314,0
DA:315,0
DA:316,0
DA:318,0
DA:321,0
DA:324,0
DA:326,0
DA:327,0
DA:330,0
DA:332,0
DA:336,0
DA:337,0
DA:338,0
DA:339,0
DA:340,0
DA:341,0
DA:342,0
DA:343,0
DA:346,0
DA:347,0
DA:348,0
DA:349,0
DA:350,0
DA:351,0
DA:352,0
DA:353,0
DA:354,0
DA:355,0
DA:356,0
DA:357,0
DA:358,0
DA:359,0
DA:360,0
DA:361,0
DA:362,0
DA:363,0
DA:365,0
DA:367,0
DA:368,0
DA:369,0
DA:370,0
DA:371,0
DA:372,0
DA:373,0
DA:375,0
DA:376,0
DA:377,0
DA:378,0
DA:379,0
DA:380,0
DA:381,0
DA:382,0
DA:383,0
DA:386,0
DA:387,0
DA:388,0
DA:389,0
DA:390,0
DA:391,0
DA:393,0
DA:395,0
DA:396,0
DA:397,0
DA:399,0
DA:400,0
DA:402,0
DA:403,0
DA:404,0
DA:405,0
DA:406,0
DA:407,0
DA:409,0
DA:410,0
DA:411,0
DA:413,0
DA:414,0
DA:415,0
DA:417,0
DA:418,0
DA:419,0
DA:420,0
DA:421,0
DA:423,0
DA:425,0
DA:426,0
DA:427,0
DA:428,0
DA:429,0
DA:430,0
DA:432,0
DA:433,0
DA:434,0
DA:435,0
DA:436,0
DA:437,0
DA:438,0
DA:439,0
DA:440,0
DA:441,0
DA:443,0
DA:444,0
DA:445,0
BRF:0
BRH:0
LF:332
LH:0
end_of_record
SF:/root/autodl-tmp/zjj/p/ditto-llm/crates/ditto-core/src/bin/ditto-llms-txt.rs
FN:97,_RINvCs9NNQbQCCv6K_14ditto_llms_txt31collect_docs_paths_from_summaryReEB2_
FN:100,_RNCINvCs9NNQbQCCv6K_14ditto_llms_txt31collect_docs_paths_from_summaryReE0B4_
FN:103,_RNCINvCs9NNQbQCCv6K_14ditto_llms_txt31collect_docs_paths_from_summaryReEs_0B4_
FN:145,_RNCNvCs9NNQbQCCv6K_14ditto_llms_txt12render_files0B3_
FN:194,_RNCNvCs9NNQbQCCv6K_14ditto_llms_txt18is_markdown_target0B3_
FN:23,_RNCNvCs9NNQbQCCv6K_14ditto_llms_txt4main0B3_
FN:75,_RNCNvCs9NNQbQCCv6K_14ditto_llms_txt4mains_0B3_
FN:197,_RNvCs9NNQbQCCv6K_14ditto_llms_txt10regen_hint
FN:141,_RNvCs9NNQbQCCv6K_14ditto_llms_txt12render_files
FN:81,_RNvCs9NNQbQCCv6K_14ditto_llms_txt13split_prelude
FN:162,_RNvCs9NNQbQCCv6K_14ditto_llms_txt16dedup_keep_order
FN:191,_RNvCs9NNQbQCCv6K_14ditto_llms_txt18is_markdown_target
FN:187,_RNvCs9NNQbQCCv6K_14ditto_llms_txt18normalize_newlines
FN:173,_RNvCs9NNQbQCCv6K_14ditto_llms_txt23normalize_relative_path
FN:9,_RNvCs9NNQbQCCv6K_14ditto_llms_txt4main
FNDA:0,_RINvCs9NNQbQCCv6K_14ditto_llms_txt31collect_docs_paths_from_summaryReEB2_
FNDA:0,_RNCINvCs9NNQbQCCv6K_14ditto_llms_txt31collect_docs_paths_from_summaryReE0B4_
FNDA:0,_RNCINvCs9NNQbQCCv6K_14ditto_llms_txt31collect_docs_paths_from_summaryReEs_0B4_
FNDA:0,_RNCNvCs9NNQbQCCv6K_14ditto_llms_txt12render_files0B3_
FNDA:0,_RNCNvCs9NNQbQCCv6K_14ditto_llms_txt18is_markdown_target0B3_
FNDA:0,_RNCNvCs9NNQbQCCv6K_14ditto_llms_txt4main0B3_
FNDA:0,_RNCNvCs9NNQbQCCv6K_14ditto_llms_txt4mains_0B3_
FNDA:0,_RNvCs9NNQbQCCv6K_14ditto_llms_txt10regen_hint
FNDA:0,_RNvCs9NNQbQCCv6K_14ditto_llms_txt12render_files
FNDA:0,_RNvCs9NNQbQCCv6K_14ditto_llms_txt13split_prelude
FNDA:0,_RNvCs9NNQbQCCv6K_14ditto_llms_txt16dedup_keep_order
FNDA:0,_RNvCs9NNQbQCCv6K_14ditto_llms_txt18is_markdown_target
FNDA:0,_RNvCs9NNQbQCCv6K_14ditto_llms_txt18normalize_newlines
FNDA:0,_RNvCs9NNQbQCCv6K_14ditto_llms_txt23normalize_relative_path
FNDA:0,_RNvCs9NNQbQCCv6K_14ditto_llms_txt4main
FNF:15
FNH:0
DA:9,0
DA:10,0
DA:11,0
DA:12,0
DA:14,0
DA:15,0
DA:17,0
DA:18,0
DA:19,0
DA:20,0
DA:21,0
DA:22,0
DA:23,0
DA:24,0
DA:25,0
DA:26,0
DA:27,0
DA:28,0
DA:29,0
DA:31,0
DA:32,0
DA:36,0
DA:37,0
DA:38,0
DA:39,0
DA:40,0
DA:41,0
DA:42,0
DA:43,0
DA:44,0
DA:45,0
DA:46,0
DA:48,0
DA:49,0
DA:51,0
DA:53,0
DA:55,0
DA:56,0
DA:57,0
DA:58,0
DA:60,0
DA:61,0
DA:62,0
DA:63,0
DA:64,0
DA:65,0
DA:66,0
DA:67,0
DA:68,0
DA:70,0
DA:71,0
DA:72,0
DA:74,0
DA:75,0
DA:78,0
DA:79,0
DA:81,0
DA:82,0
DA:83,0
DA:84,0
DA:85,0
DA:86,0
DA:87,0
DA:89,0
DA:90,0
DA:91,0
DA:93,0
DA:95,0
DA:97,0
DA:98,0
DA:99,0
DA:100,0
DA:101,0
DA:102,0
DA:103,0
DA:105,0
DA:106,0
DA:108,0
DA:109,0
DA:110,0
DA:112,0
DA:113,0
DA:115,0
DA:116,0
DA:117,0
DA:118,0
DA:120,0
DA:121,0
DA:122,0
DA:123,0
DA:125,0
DA:126,0
DA:127,0
DA:128,0
DA:129,0
DA:130,0
DA:131,0
DA:132,0
DA:133,0
DA:134,0
DA:135,0
DA:138,0
DA:139,0
DA:141,0
DA:142,0
DA:143,0
DA:144,0
DA:145,0
DA:146,0
DA:147,0
DA:149,0
DA:150,0
DA:151,0
DA:153,0
DA:154,0
DA:155,0
DA:156,0
DA:157,0
DA:159,0
DA:160,0
DA:162,0
DA:163,0
DA:164,0
DA:165,0
DA:166,0
DA:167,0
DA:168,0
DA:170,0
DA:171,0
DA:173,0
DA:174,0
DA:175,0
DA:176,0
DA:177,0
DA:178,0
DA:179,0
DA:180,0
DA:181,0
DA:184,0
DA:185,0
DA:187,0
DA:188,0
DA:189,0
DA:191,0
DA:192,0
DA:193,0
DA:194,0
DA:195,0
DA:197,0
DA:198,0
DA:199,0
DA:200,0
DA:201,0
DA:202,0
DA:204,0
DA:206,0
DA:207,0
DA:208,0
DA:209,0
DA:210,0
DA:212,0
BRF:0
BRH:0
LF:167
LH:0
end_of_record
SF:/root/autodl-tmp/zjj/p/ditto-llm/crates/ditto-core/src/capabilities/context_cache.rs
FN:24,_RNvMNtNtCseXwexsNt0j5_10ditto_core12capabilities13context_cacheNtB2_19ContextCacheProfile13supports_mode
FN:20,_RNvMNtNtCseXwexsNt0j5_10ditto_core12capabilities13context_cacheNtB2_19ContextCacheProfile16supports_caching
FNDA:0,_RNvMNtNtCseXwexsNt0j5_10ditto_core12capabilities13context_cacheNtB2_19ContextCacheProfile13supports_mode
FNDA:0,_RNvMNtNtCseXwexsNt0j5_10ditto_core12capabilities13context_cacheNtB2_19ContextCacheProfile16supports_caching
FNF:2
FNH:0
DA:20,0
DA:21,0
DA:22,0
DA:24,0
DA:25,0
DA:26,0
BRF:0
BRH:0
LF:6
LH:0
end_of_record
SF:/root/autodl-tmp/zjj/p/ditto-llm/crates/ditto-core/src/capabilities/embedding.rs
FN:14,_RNCNCNvYpNtNtNtCseXwexsNt0j5_10ditto_core12capabilities9embedding14EmbeddingModel12embed_single00Bd_
FN:12,_RNvYpNtNtNtCseXwexsNt0j5_10ditto_core12capabilities9embedding14EmbeddingModel12embed_singleB9_
FN:24,_RNvYpNtNtNtCseXwexsNt0j5_10ditto_core12capabilities9embedding17EmbeddingModelExt10embed_manyB9_
FN:28,_RNvYpNtNtNtCseXwexsNt0j5_10ditto_core12capabilities9embedding17EmbeddingModelExt9embed_oneB9_
FNDA:0,_RNCNCNvYpNtNtNtCseXwexsNt0j5_10ditto_core12capabilities9embedding14EmbeddingModel12embed_single00Bd_
FNDA:0,_RNvYpNtNtNtCseXwexsNt0j5_10ditto_core12capabilities9embedding14EmbeddingModel12embed_singleB9_
FNDA:0,_RNvYpNtNtNtCseXwexsNt0j5_10ditto_core12capabilities9embedding17EmbeddingModelExt10embed_manyB9_
FNDA:0,_RNvYpNtNtNtCseXwexsNt0j5_10ditto_core12capabilities9embedding17EmbeddingModelExt9embed_oneB9_
FNF:4
FNH:0
DA:12,0
DA:14,0
DA:15,0
DA:16,0
DA:17,0
DA:18,0
DA:19,0
DA:24,0
DA:26,0
DA:28,0
DA:30,0
BRF:0
BRH:0
LF:11
LH:0
end_of_record
SF:/root/autodl-tmp/zjj/p/ditto-llm/crates/ditto-core/src/capabilities/text.rs
FN:281,_RNCNCNCNvNtNtCseXwexsNt0j5_10ditto_core12capabilities4text23stream_text_from_streams0_000Bb_
FN:272,_RNCNCNCNvNtNtCseXwexsNt0j5_10ditto_core12capabilities4text23stream_text_from_streams_000Bb_
FN:279,_RNCNCNvNtNtCseXwexsNt0j5_10ditto_core12capabilities4text23stream_text_from_streams0_00B9_
FN:270,_RNCNCNvNtNtCseXwexsNt0j5_10ditto_core12capabilities4text23stream_text_from_streams_00B9_
FN:66,_RNCNvMNtNtCseXwexsNt0j5_10ditto_core12capabilities4textNtB4_16StreamTextHandle10final_text0B8_
FN:81,_RNCNvMNtNtCseXwexsNt0j5_10ditto_core12capabilities4textNtB4_16StreamTextHandle13final_summary0B8_
FN:83,_RNCNvMNtNtCseXwexsNt0j5_10ditto_core12capabilities4textNtB4_16StreamTextHandle13final_summarys_0B8_
FN:53,_RNCNvMNtNtCseXwexsNt0j5_10ditto_core12capabilities4textNtB4_16StreamTextHandle14final_response0B8_
FN:49,_RNCNvMNtNtCseXwexsNt0j5_10ditto_core12capabilities4textNtB4_16StreamTextHandle7is_done0B8_
FN:184,_RNCNvNtNtCseXwexsNt0j5_10ditto_core12capabilities4text23stream_text_from_stream0B7_
FN:282,_RNCNvNtNtCseXwexsNt0j5_10ditto_core12capabilities4text23stream_text_from_streams0_0B7_
FN:273,_RNCNvNtNtCseXwexsNt0j5_10ditto_core12capabilities4text23stream_text_from_streams_0B7_
FN:65,_RNvMNtNtCseXwexsNt0j5_10ditto_core12capabilities4textNtB2_16StreamTextHandle10final_text
FN:69,_RNvMNtNtCseXwexsNt0j5_10ditto_core12capabilities4textNtB2_16StreamTextHandle13final_summary
FN:52,_RNvMNtNtCseXwexsNt0j5_10ditto_core12capabilities4textNtB2_16StreamTextHandle14final_response
FN:48,_RNvMNtNtCseXwexsNt0j5_10ditto_core12capabilities4textNtB2_16StreamTextHandle7is_done
FN:143,_RNvMs_NtNtCseXwexsNt0j5_10ditto_core12capabilities4textNtB4_16StreamTextResult10final_text
FN:123,_RNvMs_NtNtCseXwexsNt0j5_10ditto_core12capabilities4textNtB4_16StreamTextResult12into_streams
FN:147,_RNvMs_NtNtCseXwexsNt0j5_10ditto_core12capabilities4textNtB4_16StreamTextResult13final_summary
FN:139,_RNvMs_NtNtCseXwexsNt0j5_10ditto_core12capabilities4textNtB4_16StreamTextResult14final_response
FN:112,_RNvMs_NtNtCseXwexsNt0j5_10ditto_core12capabilities4textNtB4_16StreamTextResult16into_full_stream
FN:104,_RNvMs_NtNtCseXwexsNt0j5_10ditto_core12capabilities4textNtB4_16StreamTextResult16into_text_stream
FN:100,_RNvMs_NtNtCseXwexsNt0j5_10ditto_core12capabilities4textNtB4_16StreamTextResult6handle
FN:135,_RNvMs_NtNtCseXwexsNt0j5_10ditto_core12capabilities4textNtB4_16StreamTextResult7is_done
FN:168,_RNvNtNtCseXwexsNt0j5_10ditto_core12capabilities4text23stream_text_from_stream
FN:160,_RNvYpNtNtNtCseXwexsNt0j5_10ditto_core12capabilities4text20LanguageModelTextExt11stream_textB9_
FN:154,_RNvYpNtNtNtCseXwexsNt0j5_10ditto_core12capabilities4text20LanguageModelTextExt13generate_textB9_
FNDA:0,_RNCNCNCNvNtNtCseXwexsNt0j5_10ditto_core12capabilities4text23stream_text_from_streams0_000Bb_
FNDA:0,_RNCNCNCNvNtNtCseXwexsNt0j5_10ditto_core12capabilities4text23stream_text_from_streams_000Bb_
FNDA:0,_RNCNCNvNtNtCseXwexsNt0j5_10ditto_core12capabilities4text23stream_text_from_streams0_00B9_
FNDA:0,_RNCNCNvNtNtCseXwexsNt0j5_10ditto_core12capabilities4text23stream_text_from_streams_00B9_
FNDA:0,_RNCNvMNtNtCseXwexsNt0j5_10ditto_core12capabilities4textNtB4_16StreamTextHandle10final_text0B8_
FNDA:0,_RNCNvMNtNtCseXwexsNt0j5_10ditto_core12capabilities4textNtB4_16StreamTextHandle13final_summary0B8_
FNDA:0,_RNCNvMNtNtCseXwexsNt0j5_10ditto_core12capabilities4textNtB4_16StreamTextHandle13final_summarys_0B8_
FNDA:0,_RNCNvMNtNtCseXwexsNt0j5_10ditto_core12capabilities4textNtB4_16StreamTextHandle14final_response0B8_
FNDA:0,_RNCNvMNtNtCseXwexsNt0j5_10ditto_core12capabilities4textNtB4_16StreamTextHandle7is_done0B8_
FNDA:0,_RNCNvNtNtCseXwexsNt0j5_10ditto_core12capabilities4text23stream_text_from_stream0B7_
FNDA:0,_RNCNvNtNtCseXwexsNt0j5_10ditto_core12capabilities4text23stream_text_from_streams0_0B7_
FNDA:0,_RNCNvNtNtCseXwexsNt0j5_10ditto_core12capabilities4text23stream_text_from_streams_0B7_
FNDA:0,_RNvMNtNtCseXwexsNt0j5_10ditto_core12capabilities4textNtB2_16StreamTextHandle10final_text
FNDA:0,_RNvMNtNtCseXwexsNt0j5_10ditto_core12capabilities4textNtB2_16StreamTextHandle13final_summary
FNDA:0,_RNvMNtNtCseXwexsNt0j5_10ditto_core12capabilities4textNtB2_16StreamTextHandle14final_response
FNDA:0,_RNvMNtNtCseXwexsNt0j5_10ditto_core12capabilities4textNtB2_16StreamTextHandle7is_done
FNDA:0,_RNvMs_NtNtCseXwexsNt0j5_10ditto_core12capabilities4textNtB4_16StreamTextResult10final_text
FNDA:0,_RNvMs_NtNtCseXwexsNt0j5_10ditto_core12capabilities4textNtB4_16StreamTextResult12into_streams
FNDA:0,_RNvMs_NtNtCseXwexsNt0j5_10ditto_core12capabilities4textNtB4_16StreamTextResult13final_summary
FNDA:0,_RNvMs_NtNtCseXwexsNt0j5_10ditto_core12capabilities4textNtB4_16StreamTextResult14final_response
FNDA:0,_RNvMs_NtNtCseXwexsNt0j5_10ditto_core12capabilities4textNtB4_16StreamTextResult16into_full_stream
FNDA:0,_RNvMs_NtNtCseXwexsNt0j5_10ditto_core12capabilities4textNtB4_16StreamTextResult16into_text_stream
FNDA:0,_RNvMs_NtNtCseXwexsNt0j5_10ditto_core12capabilities4textNtB4_16StreamTextResult6handle
FNDA:0,_RNvMs_NtNtCseXwexsNt0j5_10ditto_core12capabilities4textNtB4_16StreamTextResult7is_done
FNDA:0,_RNvNtNtCseXwexsNt0j5_10ditto_core12capabilities4text23stream_text_from_stream
FNDA:0,_RNvYpNtNtNtCseXwexsNt0j5_10ditto_core12capabilities4text20LanguageModelTextExt11stream_textB9_
FNDA:0,_RNvYpNtNtNtCseXwexsNt0j5_10ditto_core12capabilities4text20LanguageModelTextExt13generate_textB9_
FNF:27
FNH:0
DA:48,0
DA:49,0
DA:50,0
DA:52,0
DA:53,0
DA:54,0
DA:55,0
DA:56,0
DA:57,0
DA:58,0
DA:59,0
DA:60,0
DA:61,0
DA:62,0
DA:63,0
DA:65,0
DA:66,0
DA:67,0
DA:69,0
DA:70,0
DA:71,0
DA:72,0
DA:74,0
DA:75,0
DA:77,0
DA:78,0
DA:79,0
DA:80,0
DA:81,0
DA:82,0
DA:83,0
DA:84,0
DA:85,0
DA:86,0
DA:88,0
DA:100,0
DA:101,0
DA:102,0
DA:104,0
DA:105,0
DA:106,0
DA:107,0
DA:108,0
DA:109,0
DA:110,0
DA:112,0
DA:113,0
DA:114,0
DA:115,0
DA:116,0
DA:117,0
DA:118,0
DA:119,0
DA:120,0
DA:121,0
DA:123,0
DA:124,0
DA:125,0
DA:126,0
DA:127,0
DA:128,0
DA:129,0
DA:130,0
DA:131,0
DA:132,0
DA:133,0
DA:135,0
DA:136,0
DA:137,0
DA:139,0
DA:140,0
DA:141,0
DA:143,0
DA:144,0
DA:145,0
DA:147,0
DA:148,0
DA:149,0
DA:154,0
DA:158,0
DA:160,0
DA:163,0
DA:168,0
DA:171,0
DA:172,0
DA:173,0
DA:175,0
DA:176,0
DA:178,0
DA:179,0
DA:181,0
DA:182,0
DA:184,0
DA:185,0
DA:187,0
DA:189,0
DA:190,0
DA:191,0
DA:192,0
DA:193,0
DA:194,0
DA:195,0
DA:196,0
DA:197,0
DA:198,0
DA:200,0
DA:202,0
DA:203,0
DA:204,0
DA:205,0
DA:206,0
DA:207,0
DA:208,0
DA:209,0
DA:210,0
DA:211,0
DA:213,0
DA:214,0
DA:215,0
DA:216,0
DA:217,0
DA:218,0
DA:219,0
DA:222,0
DA:223,0
DA:224,0
DA:225,0
DA:226,0
DA:227,0
DA:228,0
DA:229,0
DA:230,0
DA:234,0
DA:235,0
DA:236,0
DA:237,0
DA:238,0
DA:239,0
DA:240,0
DA:241,0
DA:242,0
DA:243,0
DA:244,0
DA:245,0
DA:246,0
DA:247,0
DA:248,0
DA:249,0
DA:250,0
DA:251,0
DA:252,0
DA:253,0
DA:258,0
DA:260,0
DA:261,0
DA:262,0
DA:263,0
DA:264,0
DA:266,0
DA:268,0
DA:269,0
DA:270,0
DA:271,0
DA:272,0
DA:273,0
DA:275,0
DA:277,0
DA:278,0
DA:279,0
DA:280,0
DA:281,0
DA:282,0
DA:284,0
DA:286,0
DA:287,0
DA:288,0
DA:289,0
DA:290,0
DA:291,0
DA:292,0
DA:293,0
BRF:0
BRH:0
LF:192
LH:0
end_of_record
SF:/root/autodl-tmp/zjj/p/ditto-llm/crates/ditto-core/src/capabilities/video.rs
FN:97,_RNCNCNvYpNtNtNtCseXwexsNt0j5_10ditto_core12capabilities5video20VideoGenerationModel19poll_until_terminal00Bd_
FN:71,_RNvYpNtNtNtCseXwexsNt0j5_10ditto_core12capabilities5video20VideoGenerationModel15create_and_pollB9_
FN:43,_RNvYpNtNtNtCseXwexsNt0j5_10ditto_core12capabilities5video20VideoGenerationModel16download_contentB9_
FN:82,_RNvYpNtNtNtCseXwexsNt0j5_10ditto_core12capabilities5video20VideoGenerationModel19poll_until_terminalB9_
FN:21,_RNvYpNtNtNtCseXwexsNt0j5_10ditto_core12capabilities5video20VideoGenerationModel4listB9_
FN:57,_RNvYpNtNtNtCseXwexsNt0j5_10ditto_core12capabilities5video20VideoGenerationModel5remixB9_
FN:30,_RNvYpNtNtNtCseXwexsNt0j5_10ditto_core12capabilities5video20VideoGenerationModel6deleteB9_
FNDA:0,_RNCNCNvYpNtNtNtCseXwexsNt0j5_10ditto_core12capabilities5video20VideoGenerationModel19poll_until_terminal00Bd_
FNDA:0,_RNvYpNtNtNtCseXwexsNt0j5_10ditto_core12capabilities5video20VideoGenerationModel15create_and_pollB9_
FNDA:0,_RNvYpNtNtNtCseXwexsNt0j5_10ditto_core12capabilities5video20VideoGenerationModel16download_contentB9_
FNDA:0,_RNvYpNtNtNtCseXwexsNt0j5_10ditto_core12capabilities5video20VideoGenerationModel19poll_until_terminalB9_
FNDA:0,_RNvYpNtNtNtCseXwexsNt0j5_10ditto_core12capabilities5video20VideoGenerationModel4listB9_
FNDA:0,_RNvYpNtNtNtCseXwexsNt0j5_10ditto_core12capabilities5video20VideoGenerationModel5remixB9_
FNDA:0,_RNvYpNtNtNtCseXwexsNt0j5_10ditto_core12capabilities5video20VideoGenerationModel6deleteB9_
FNF:7
FNH:0
DA:21,0
DA:28,0
DA:30,0
DA:31,0
DA:37,0
DA:43,0
DA:44,0
DA:51,0
DA:57,0
DA:58,0
DA:65,0
DA:71,0
DA:75,0
DA:82,0
DA:97,0
DA:103,0
BRF:0
BRH:0
LF:16
LH:0
end_of_record
SF:/root/autodl-tmp/zjj/p/ditto-llm/crates/ditto-core/src/catalog/builtin/mod.rs
FN:75,_RNvNtNtCseXwexsNt0j5_10ditto_core7catalog7builtin16builtin_registry
FN:71,_RNvNtNtCseXwexsNt0j5_10ditto_core7catalog7builtin24builtin_provider_plugins
FNDA:8,_RNvNtNtCseXwexsNt0j5_10ditto_core7catalog7builtin16builtin_registry
FNDA:0,_RNvNtNtCseXwexsNt0j5_10ditto_core7catalog7builtin24builtin_provider_plugins
FNF:2
FNH:1
DA:71,0
DA:72,0
DA:73,0
DA:75,8
DA:76,8
DA:77,8
BRF:0
BRH:0
LF:6
LH:3
end_of_record
SF:/root/autodl-tmp/zjj/p/ditto-llm/crates/ditto-core/src/catalog/mod.rs
FN:205,_RNCNCNCNvMs1_NtCseXwexsNt0j5_10ditto_core7catalogNtBb_24ProviderPluginDescriptor18resolve_with_hintss_000Bd_
FN:203,_RNCNCNvMs1_NtCseXwexsNt0j5_10ditto_core7catalogNtB9_24ProviderPluginDescriptor18resolve_with_hintss_00Bb_
FN:207,_RNCNCNvMs1_NtCseXwexsNt0j5_10ditto_core7catalogNtB9_24ProviderPluginDescriptor18resolve_with_hintss_0s_0Bb_
FN:200,_RNCNvMs1_NtCseXwexsNt0j5_10ditto_core7catalogNtB7_24ProviderPluginDescriptor18resolve_with_hintss_0B9_
FN:160,_RNCNvMs1_NtCseXwexsNt0j5_10ditto_core7catalogNtB7_24ProviderPluginDescriptor5model0B9_
FN:173,_RNCNvMs1_NtCseXwexsNt0j5_10ditto_core7catalogNtB7_24ProviderPluginDescriptor8behaviors_0B9_
FN:243,_RNCNvMs2_NtCseXwexsNt0j5_10ditto_core7catalogNtB7_15CatalogRegistry6plugin0B9_
FN:43,_RNvMNtCseXwexsNt0j5_10ditto_core7catalogNtB2_26CapabilityStatusDescriptor11implemented
FN:57,_RNvMNtCseXwexsNt0j5_10ditto_core7catalogNtB2_26CapabilityStatusDescriptor7blocked
FN:50,_RNvMNtCseXwexsNt0j5_10ditto_core7catalogNtB2_26CapabilityStatusDescriptor7planned
FN:135,_RNvMs0_NtCseXwexsNt0j5_10ditto_core7catalogNtB5_23ProviderModelDescriptor7matches
FN:182,_RNvMs1_NtCseXwexsNt0j5_10ditto_core7catalogNtB5_24ProviderPluginDescriptor18resolve_with_hints
FN:159,_RNvMs1_NtCseXwexsNt0j5_10ditto_core7catalogNtB5_24ProviderPluginDescriptor5model
FN:155,_RNvMs1_NtCseXwexsNt0j5_10ditto_core7catalogNtB5_24ProviderPluginDescriptor6models
FN:178,_RNvMs1_NtCseXwexsNt0j5_10ditto_core7catalogNtB5_24ProviderPluginDescriptor7resolve
FN:167,_RNvMs1_NtCseXwexsNt0j5_10ditto_core7catalogNtB5_24ProviderPluginDescriptor8behavior
FN:163,_RNvMs1_NtCseXwexsNt0j5_10ditto_core7catalogNtB5_24ProviderPluginDescriptor9behaviors
FN:272,_RNvMs2_NtCseXwexsNt0j5_10ditto_core7catalogNtB5_15CatalogRegistry18resolve_with_hints
FN:283,_RNvMs2_NtCseXwexsNt0j5_10ditto_core7catalogNtB5_15CatalogRegistry18supports_operation
FN:234,_RNvMs2_NtCseXwexsNt0j5_10ditto_core7catalogNtB5_15CatalogRegistry3new
FN:250,_RNvMs2_NtCseXwexsNt0j5_10ditto_core7catalogNtB5_15CatalogRegistry5model
FN:246,_RNvMs2_NtCseXwexsNt0j5_10ditto_core7catalogNtB5_15CatalogRegistry6models
FN:242,_RNvMs2_NtCseXwexsNt0j5_10ditto_core7catalogNtB5_15CatalogRegistry6plugin
FN:238,_RNvMs2_NtCseXwexsNt0j5_10ditto_core7catalogNtB5_15CatalogRegistry7plugins
FN:263,_RNvMs2_NtCseXwexsNt0j5_10ditto_core7catalogNtB5_15CatalogRegistry7resolve
FN:254,_RNvMs2_NtCseXwexsNt0j5_10ditto_core7catalogNtB5_15CatalogRegistry8behavior
FN:117,_RNvMs_NtCseXwexsNt0j5_10ditto_core7catalogNtB4_23ModelBehaviorDescriptor7matches
FNDA:0,_RNCNCNCNvMs1_NtCseXwexsNt0j5_10ditto_core7catalogNtBb_24ProviderPluginDescriptor18resolve_with_hintss_000Bd_
FNDA:0,_RNCNCNvMs1_NtCseXwexsNt0j5_10ditto_core7catalogNtB9_24ProviderPluginDescriptor18resolve_with_hintss_00Bb_
FNDA:4,_RNCNCNvMs1_NtCseXwexsNt0j5_10ditto_core7catalogNtB9_24ProviderPluginDescriptor18resolve_with_hintss_0s_0Bb_
FNDA:4,_RNCNvMs1_NtCseXwexsNt0j5_10ditto_core7catalogNtB7_24ProviderPluginDescriptor18resolve_with_hintss_0B9_
FNDA:0,_RNCNvMs1_NtCseXwexsNt0j5_10ditto_core7catalogNtB7_24ProviderPluginDescriptor5model0B9_
FNDA:0,_RNCNvMs1_NtCseXwexsNt0j5_10ditto_core7catalogNtB7_24ProviderPluginDescriptor8behaviors_0B9_
FNDA:1,_RNCNvMs2_NtCseXwexsNt0j5_10ditto_core7catalogNtB7_15CatalogRegistry6plugin0B9_
FNDA:0,_RNvMNtCseXwexsNt0j5_10ditto_core7catalogNtB2_26CapabilityStatusDescriptor11implemented
FNDA:0,_RNvMNtCseXwexsNt0j5_10ditto_core7catalogNtB2_26CapabilityStatusDescriptor7blocked
FNDA:0,_RNvMNtCseXwexsNt0j5_10ditto_core7catalogNtB2_26CapabilityStatusDescriptor7planned
FNDA:0,_RNvMs0_NtCseXwexsNt0j5_10ditto_core7catalogNtB5_23ProviderModelDescriptor7matches
FNDA:4,_RNvMs1_NtCseXwexsNt0j5_10ditto_core7catalogNtB5_24ProviderPluginDescriptor18resolve_with_hints
FNDA:9,_RNvMs1_NtCseXwexsNt0j5_10ditto_core7catalogNtB5_24ProviderPluginDescriptor5model
FNDA:4,_RNvMs1_NtCseXwexsNt0j5_10ditto_core7catalogNtB5_24ProviderPluginDescriptor6models
FNDA:0,_RNvMs1_NtCseXwexsNt0j5_10ditto_core7catalogNtB5_24ProviderPluginDescriptor7resolve
FNDA:0,_RNvMs1_NtCseXwexsNt0j5_10ditto_core7catalogNtB5_24ProviderPluginDescriptor8behavior
FNDA:0,_RNvMs1_NtCseXwexsNt0j5_10ditto_core7catalogNtB5_24ProviderPluginDescriptor9behaviors
FNDA:0,_RNvMs2_NtCseXwexsNt0j5_10ditto_core7catalogNtB5_15CatalogRegistry18resolve_with_hints
FNDA:0,_RNvMs2_NtCseXwexsNt0j5_10ditto_core7catalogNtB5_15CatalogRegistry18supports_operation
FNDA:8,_RNvMs2_NtCseXwexsNt0j5_10ditto_core7catalogNtB5_15CatalogRegistry3new
FNDA:0,_RNvMs2_NtCseXwexsNt0j5_10ditto_core7catalogNtB5_15CatalogRegistry5model
FNDA:0,_RNvMs2_NtCseXwexsNt0j5_10ditto_core7catalogNtB5_15CatalogRegistry6models
FNDA:1,_RNvMs2_NtCseXwexsNt0j5_10ditto_core7catalogNtB5_15CatalogRegistry6plugin
FNDA:13,_RNvMs2_NtCseXwexsNt0j5_10ditto_core7catalogNtB5_15CatalogRegistry7plugins
FNDA:0,_RNvMs2_NtCseXwexsNt0j5_10ditto_core7catalogNtB5_15CatalogRegistry7resolve
FNDA:0,_RNvMs2_NtCseXwexsNt0j5_10ditto_core7catalogNtB5_15CatalogRegistry8behavior
FNDA:0,_RNvMs_NtCseXwexsNt0j5_10ditto_core7catalogNtB4_23ModelBehaviorDescriptor7matches
FNF:27
FNH:9
DA:43,0
DA:44,0
DA:45,0
DA:46,0
DA:47,0
DA:48,0
DA:50,0
DA:51,0
DA:52,0
DA:53,0
DA:54,0
DA:55,0
DA:57,0
DA:58,0
DA:59,0
DA:60,0
DA:61,0
DA:62,0
DA:117,0
DA:118,0
DA:119,0
DA:135,0
DA:136,0
DA:137,0
DA:155,4
DA:156,4
DA:157,4
DA:159,9
DA:160,9
DA:161,9
DA:163,0
DA:164,0
DA:165,0
DA:167,0
DA:168,0
DA:169,0
DA:170,0
DA:171,0
DA:172,0
DA:173,0
DA:174,0
DA:175,0
DA:176,0
DA:178,0
DA:179,0
DA:180,0
DA:182,4
DA:183,4
DA:184,4
DA:185,4
DA:186,4
DA:187,4
DA:188,4
DA:189,4
DA:190,0
DA:191,0
DA:192,0
DA:193,4
DA:195,4
DA:197,4
DA:198,4
DA:199,4
DA:200,4
DA:201,4
DA:202,4
DA:203,4
DA:204,0
DA:205,0
DA:206,0
DA:207,4
DA:208,4
DA:209,4
DA:210,4
DA:212,4
DA:213,4
DA:214,4
DA:215,4
DA:216,4
DA:217,4
DA:218,4
DA:219,4
DA:220,4
DA:221,4
DA:222,4
DA:223,4
DA:224,4
DA:225,4
DA:234,8
DA:235,8
DA:236,8
DA:238,13
DA:239,13
DA:240,13
DA:242,1
DA:243,1
DA:244,1
DA:246,0
DA:247,0
DA:248,0
DA:250,0
DA:251,0
DA:252,0
DA:254,0
DA:255,0
DA:256,0
DA:257,0
DA:258,0
DA:259,0
DA:260,0
DA:261,0
DA:263,0
DA:264,0
DA:265,0
DA:266,0
DA:267,0
DA:268,0
DA:269,0
DA:270,0
DA:272,0
DA:273,0
DA:274,0
DA:275,0
DA:276,0
DA:277,0
DA:278,0
DA:279,0
DA:280,0
DA:281,0
DA:283,0
DA:284,0
DA:285,0
DA:286,0
DA:287,0
DA:288,0
DA:289,0
DA:290,0
DA:291,0
DA:292,0
DA:294,0
DA:295,0
BRF:0
BRH:0
LF:147
LH:53
end_of_record
SF:/root/autodl-tmp/zjj/p/ditto-llm/crates/ditto-core/src/catalog/provider_runtime.rs
FN:263,_RNvMs2_NtNtCseXwexsNt0j5_10ditto_core7catalog16provider_runtimeNtB7_23ProviderModelDescriptor14capability_set
FN:256,_RNvMs2_NtNtCseXwexsNt0j5_10ditto_core7catalog16provider_runtimeNtB7_23ProviderModelDescriptor17capability_status
FN:252,_RNvMs2_NtNtCseXwexsNt0j5_10ditto_core7catalog16provider_runtimeNtB7_23ProviderModelDescriptor19capability_statuses
FN:267,_RNvMs2_NtNtCseXwexsNt0j5_10ditto_core7catalog16provider_runtimeNtB7_23ProviderModelDescriptor19supports_capability
FN:271,_RNvMs2_NtNtCseXwexsNt0j5_10ditto_core7catalog16provider_runtimeNtB7_23ProviderModelDescriptor21capability_descriptor
FN:246,_RNvMs2_NtNtCseXwexsNt0j5_10ditto_core7catalog16provider_runtimeNtB7_23ProviderModelDescriptor21capability_status_map
FN:287,_RNvMs3_NtNtCseXwexsNt0j5_10ditto_core7catalog16provider_runtimeNtB7_24ProviderPluginDescriptor11provider_id
FN:373,_RNvMs3_NtNtCseXwexsNt0j5_10ditto_core7catalog16provider_runtimeNtB7_24ProviderPluginDescriptor12runtime_spec
FN:320,_RNvMs3_NtNtCseXwexsNt0j5_10ditto_core7catalog16provider_runtimeNtB7_24ProviderPluginDescriptor14capability_set
FN:291,_RNvMs3_NtNtCseXwexsNt0j5_10ditto_core7catalog16provider_runtimeNtB7_24ProviderPluginDescriptor15protocol_family
FN:313,_RNvMs3_NtNtCseXwexsNt0j5_10ditto_core7catalog16provider_runtimeNtB7_24ProviderPluginDescriptor17capability_status
FN:328,_RNvMs3_NtNtCseXwexsNt0j5_10ditto_core7catalog16provider_runtimeNtB7_24ProviderPluginDescriptor19capability_bindings
FN:309,_RNvMs3_NtNtCseXwexsNt0j5_10ditto_core7catalog16provider_runtimeNtB7_24ProviderPluginDescriptor19capability_statuses
FN:324,_RNvMs3_NtNtCseXwexsNt0j5_10ditto_core7catalog16provider_runtimeNtB7_24ProviderPluginDescriptor19supports_capability
FN:388,_RNvMs3_NtNtCseXwexsNt0j5_10ditto_core7catalog16provider_runtimeNtB7_24ProviderPluginDescriptor21capability_resolution
FN:303,_RNvMs3_NtNtCseXwexsNt0j5_10ditto_core7catalog16provider_runtimeNtB7_24ProviderPluginDescriptor21capability_status_map
FN:447,_RNvMs4_NtNtCseXwexsNt0j5_10ditto_core7catalog16provider_runtimeNtB7_15CatalogRegistry12plugin_by_id
FN:456,_RNvMs4_NtNtCseXwexsNt0j5_10ditto_core7catalog16provider_runtimeNtB7_15CatalogRegistry14plugin_by_hint
FN:479,_RNvMs4_NtNtCseXwexsNt0j5_10ditto_core7catalog16provider_runtimeNtB7_15CatalogRegistry20resolve_for_provider
FN:472,_RNvMs4_NtNtCseXwexsNt0j5_10ditto_core7catalog16provider_runtimeNtB7_15CatalogRegistry21models_by_provider_id
FN:499,_RNvMs4_NtNtCseXwexsNt0j5_10ditto_core7catalog16provider_runtimeNtB7_15CatalogRegistry21provider_runtime_spec
FN:529,_RNvMs4_NtNtCseXwexsNt0j5_10ditto_core7catalog16provider_runtimeNtB7_15CatalogRegistry27model_capability_descriptor
FN:510,_RNvMs4_NtNtCseXwexsNt0j5_10ditto_core7catalog16provider_runtimeNtB7_15CatalogRegistry28provider_supports_capability
FN:503,_RNvMs4_NtNtCseXwexsNt0j5_10ditto_core7catalog16provider_runtimeNtB7_15CatalogRegistry29provider_runtime_spec_by_hint
FN:542,_RNvMs4_NtNtCseXwexsNt0j5_10ditto_core7catalog16provider_runtimeNtB7_15CatalogRegistry30provider_capability_resolution
FN:488,_RNvMs4_NtNtCseXwexsNt0j5_10ditto_core7catalog16provider_runtimeNtB7_15CatalogRegistry31resolve_with_hints_for_provider
FN:561,_RNvMs4_NtNtCseXwexsNt0j5_10ditto_core7catalog16provider_runtimeNtB7_15CatalogRegistry34provider_model_supports_capability
FN:518,_RNvMs4_NtNtCseXwexsNt0j5_10ditto_core7catalog16provider_runtimeNtB7_15CatalogRegistry36provider_supports_capability_by_hint
FN:550,_RNvMs4_NtNtCseXwexsNt0j5_10ditto_core7catalog16provider_runtimeNtB7_15CatalogRegistry38provider_capability_resolution_by_hint
FN:572,_RNvMs4_NtNtCseXwexsNt0j5_10ditto_core7catalog16provider_runtimeNtB7_15CatalogRegistry42provider_model_supports_capability_by_hint
FN:87,_RINvXs_NtNtCseXwexsNt0j5_10ditto_core7catalog16provider_runtimeNtB5_21ProviderCapabilitySetINtNtNtNtCs7dTDQl1DYhd_4core4iter6traits7collect12FromIteratorNtNtNtB9_9contracts3ids14CapabilityKindE9from_iterINtNtNtB1y_8adapters10filter_map9FilterMapINtNtNtNtCsdB7fS8jepxw_5alloc11collections5btree3map4IterB2r_NtB7_30CapabilityImplementationStatusENCNvB5_42implemented_capability_set_from_status_map0EEB9_
FN:87,_RINvXs_NtNtCseXwexsNt0j5_10ditto_core7catalog16provider_runtimeNtB5_21ProviderCapabilitySetINtNtNtNtCs7dTDQl1DYhd_4core4iter6traits7collect12FromIteratorNtNtNtB9_9contracts3ids14CapabilityKindE9from_iterINtNtNtB1y_8adapters6filter6FilterINtNtB3k_6copied6CopiedINtNtNtNtCsdB7fS8jepxw_5alloc11collections5btree3set4IterB2r_EENCNvMB5_BZ_10difference0EEB9_
FN:87,_RINvXs_NtNtCseXwexsNt0j5_10ditto_core7catalog16provider_runtimeNtB5_21ProviderCapabilitySetINtNtNtNtCs7dTDQl1DYhd_4core4iter6traits7collect12FromIteratorNtNtNtB9_9contracts3ids14CapabilityKindE9from_iterINtNtNtB1y_8adapters6filter6FilterINtNtB3k_6copied6CopiedINtNtNtNtCsdB7fS8jepxw_5alloc11collections5btree3set4IterB2r_EENCNvMB5_BZ_12intersection0EEB9_
FN:467,_RNCNCNvMs4_NtNtCseXwexsNt0j5_10ditto_core7catalog16provider_runtimeNtBb_15CatalogRegistry14plugin_by_hint00Bd_
FN:53,_RNCNvMNtNtCseXwexsNt0j5_10ditto_core7catalog16provider_runtimeNtB4_21ProviderCapabilitySet10difference0B8_
FN:47,_RNCNvMNtNtCseXwexsNt0j5_10ditto_core7catalog16provider_runtimeNtB4_21ProviderCapabilitySet12intersection0B8_
FN:295,_RNCNvMs3_NtNtCseXwexsNt0j5_10ditto_core7catalog16provider_runtimeNtB9_24ProviderPluginDescriptor15protocol_family0Bb_
FN:361,_RNCNvMs3_NtNtCseXwexsNt0j5_10ditto_core7catalog16provider_runtimeNtB9_24ProviderPluginDescriptor19capability_bindings0Bb_
FN:392,_RNCNvMs3_NtNtCseXwexsNt0j5_10ditto_core7catalog16provider_runtimeNtB9_24ProviderPluginDescriptor21capability_resolution0Bb_
FN:397,_RNCNvMs3_NtNtCseXwexsNt0j5_10ditto_core7catalog16provider_runtimeNtB9_24ProviderPluginDescriptor21capability_resolutions0_0Bb_
FN:396,_RNCNvMs3_NtNtCseXwexsNt0j5_10ditto_core7catalog16provider_runtimeNtB9_24ProviderPluginDescriptor21capability_resolutions_0Bb_
FN:453,_RNCNvMs4_NtNtCseXwexsNt0j5_10ditto_core7catalog16provider_runtimeNtB9_15CatalogRegistry12plugin_by_id0Bb_
FN:467,_RNCNvMs4_NtNtCseXwexsNt0j5_10ditto_core7catalog16provider_runtimeNtB9_15CatalogRegistry14plugin_by_hint0Bb_
FN:425,_RNCNvNtNtCseXwexsNt0j5_10ditto_core7catalog16provider_runtime24normalize_provider_token0B7_
FN:426,_RNCNvNtNtCseXwexsNt0j5_10ditto_core7catalog16provider_runtime24normalize_provider_tokens_0B7_
FN:133,_RNCNvNtNtCseXwexsNt0j5_10ditto_core7catalog16provider_runtime38capability_status_descriptors_from_map0B7_
FN:144,_RNCNvNtNtCseXwexsNt0j5_10ditto_core7catalog16provider_runtime42implemented_capability_set_from_status_map0B7_
FN:51,_RNvMNtNtCseXwexsNt0j5_10ditto_core7catalog16provider_runtimeNtB2_21ProviderCapabilitySet10difference
FN:77,_RNvMNtNtCseXwexsNt0j5_10ditto_core7catalog16provider_runtimeNtB2_21ProviderCapabilitySet11from_models
FN:45,_RNvMNtNtCseXwexsNt0j5_10ditto_core7catalog16provider_runtimeNtB2_21ProviderCapabilitySet12intersection
FN:67,_RNvMNtNtCseXwexsNt0j5_10ditto_core7catalog16provider_runtimeNtB2_21ProviderCapabilitySet13from_bindings
FN:57,_RNvMNtNtCseXwexsNt0j5_10ditto_core7catalog16provider_runtimeNtB2_21ProviderCapabilitySet15from_operations
FN:33,_RNvMNtNtCseXwexsNt0j5_10ditto_core7catalog16provider_runtimeNtB2_21ProviderCapabilitySet3len
FN:17,_RNvMNtNtCseXwexsNt0j5_10ditto_core7catalog16provider_runtimeNtB2_21ProviderCapabilitySet3new
FN:37,_RNvMNtNtCseXwexsNt0j5_10ditto_core7catalog16provider_runtimeNtB2_21ProviderCapabilitySet4iter
FN:41,_RNvMNtNtCseXwexsNt0j5_10ditto_core7catalog16provider_runtimeNtB2_21ProviderCapabilitySet6extend
FN:21,_RNvMNtNtCseXwexsNt0j5_10ditto_core7catalog16provider_runtimeNtB2_21ProviderCapabilitySet6insert
FN:25,_RNvMNtNtCseXwexsNt0j5_10ditto_core7catalog16provider_runtimeNtB2_21ProviderCapabilitySet8contains
FN:29,_RNvMNtNtCseXwexsNt0j5_10ditto_core7catalog16provider_runtimeNtB2_21ProviderCapabilitySet8is_empty
FN:195,_RNvMs0_NtNtCseXwexsNt0j5_10ditto_core7catalog16provider_runtimeNtB5_28ProviderCapabilityResolution14model_supports
FN:191,_RNvMs0_NtNtCseXwexsNt0j5_10ditto_core7catalog16provider_runtimeNtB5_28ProviderCapabilityResolution17provider_supports
FN:199,_RNvMs0_NtNtCseXwexsNt0j5_10ditto_core7catalog16provider_runtimeNtB5_28ProviderCapabilityResolution18effective_supports
FN:187,_RNvMs0_NtNtCseXwexsNt0j5_10ditto_core7catalog16provider_runtimeNtB5_28ProviderCapabilityResolution22model_is_catalog_known
FN:225,_RNvMs1_NtNtCseXwexsNt0j5_10ditto_core7catalog16provider_runtimeNtB5_28CapabilityScopeSetResolution14provider_scope
FN:213,_RNvMs1_NtNtCseXwexsNt0j5_10ditto_core7catalog16provider_runtimeNtB5_28CapabilityScopeSetResolution9for_model
FN:430,_RNvNtNtCseXwexsNt0j5_10ditto_core7catalog16provider_runtime20provider_match_score
FN:421,_RNvNtNtCseXwexsNt0j5_10ditto_core7catalog16provider_runtime24normalize_provider_token
FN:108,_RNvNtNtCseXwexsNt0j5_10ditto_core7catalog16provider_runtime35capability_status_map_from_bindings
FN:118,_RNvNtNtCseXwexsNt0j5_10ditto_core7catalog16provider_runtime35merge_capability_status_descriptors
FN:98,_RNvNtNtCseXwexsNt0j5_10ditto_core7catalog16provider_runtime37capability_status_map_from_operations
FN:127,_RNvNtNtCseXwexsNt0j5_10ditto_core7catalog16provider_runtime38capability_status_descriptors_from_map
FN:139,_RNvNtNtCseXwexsNt0j5_10ditto_core7catalog16provider_runtime42implemented_capability_set_from_status_map
FNDA:0,_RNvMs2_NtNtCseXwexsNt0j5_10ditto_core7catalog16provider_runtimeNtB7_23ProviderModelDescriptor14capability_set
FNDA:0,_RNvMs2_NtNtCseXwexsNt0j5_10ditto_core7catalog16provider_runtimeNtB7_23ProviderModelDescriptor17capability_status
FNDA:0,_RNvMs2_NtNtCseXwexsNt0j5_10ditto_core7catalog16provider_runtimeNtB7_23ProviderModelDescriptor19capability_statuses
FNDA:0,_RNvMs2_NtNtCseXwexsNt0j5_10ditto_core7catalog16provider_runtimeNtB7_23ProviderModelDescriptor19supports_capability
FNDA:0,_RNvMs2_NtNtCseXwexsNt0j5_10ditto_core7catalog16provider_runtimeNtB7_23ProviderModelDescriptor21capability_descriptor
FNDA:0,_RNvMs2_NtNtCseXwexsNt0j5_10ditto_core7catalog16provider_runtimeNtB7_23ProviderModelDescriptor21capability_status_map
FNDA:24,_RNvMs3_NtNtCseXwexsNt0j5_10ditto_core7catalog16provider_runtimeNtB7_24ProviderPluginDescriptor11provider_id
FNDA:3,_RNvMs3_NtNtCseXwexsNt0j5_10ditto_core7catalog16provider_runtimeNtB7_24ProviderPluginDescriptor12runtime_spec
FNDA:11,_RNvMs3_NtNtCseXwexsNt0j5_10ditto_core7catalog16provider_runtimeNtB7_24ProviderPluginDescriptor14capability_set
FNDA:4,_RNvMs3_NtNtCseXwexsNt0j5_10ditto_core7catalog16provider_runtimeNtB7_24ProviderPluginDescriptor15protocol_family
FNDA:0,_RNvMs3_NtNtCseXwexsNt0j5_10ditto_core7catalog16provider_runtimeNtB7_24ProviderPluginDescriptor17capability_status
FNDA:3,_RNvMs3_NtNtCseXwexsNt0j5_10ditto_core7catalog16provider_runtimeNtB7_24ProviderPluginDescriptor19capability_bindings
FNDA:3,_RNvMs3_NtNtCseXwexsNt0j5_10ditto_core7catalog16provider_runtimeNtB7_24ProviderPluginDescriptor19capability_statuses
FNDA:0,_RNvMs3_NtNtCseXwexsNt0j5_10ditto_core7catalog16provider_runtimeNtB7_24ProviderPluginDescriptor19supports_capability
FNDA:5,_RNvMs3_NtNtCseXwexsNt0j5_10ditto_core7catalog16provider_runtimeNtB7_24ProviderPluginDescriptor21capability_resolution
FNDA:14,_RNvMs3_NtNtCseXwexsNt0j5_10ditto_core7catalog16provider_runtimeNtB7_24ProviderPluginDescriptor21capability_status_map
FNDA:9,_RNvMs4_NtNtCseXwexsNt0j5_10ditto_core7catalog16provider_runtimeNtB7_15CatalogRegistry12plugin_by_id
FNDA:0,_RNvMs4_NtNtCseXwexsNt0j5_10ditto_core7catalog16provider_runtimeNtB7_15CatalogRegistry14plugin_by_hint
FNDA:0,_RNvMs4_NtNtCseXwexsNt0j5_10ditto_core7catalog16provider_runtimeNtB7_15CatalogRegistry20resolve_for_provider
FNDA:0,_RNvMs4_NtNtCseXwexsNt0j5_10ditto_core7catalog16provider_runtimeNtB7_15CatalogRegistry21models_by_provider_id
FNDA:0,_RNvMs4_NtNtCseXwexsNt0j5_10ditto_core7catalog16provider_runtimeNtB7_15CatalogRegistry21provider_runtime_spec
FNDA:0,_RNvMs4_NtNtCseXwexsNt0j5_10ditto_core7catalog16provider_runtimeNtB7_15CatalogRegistry27model_capability_descriptor
FNDA:0,_RNvMs4_NtNtCseXwexsNt0j5_10ditto_core7catalog16provider_runtimeNtB7_15CatalogRegistry28provider_supports_capability
FNDA:0,_RNvMs4_NtNtCseXwexsNt0j5_10ditto_core7catalog16provider_runtimeNtB7_15CatalogRegistry29provider_runtime_spec_by_hint
FNDA:0,_RNvMs4_NtNtCseXwexsNt0j5_10ditto_core7catalog16provider_runtimeNtB7_15CatalogRegistry30provider_capability_resolution
FNDA:4,_RNvMs4_NtNtCseXwexsNt0j5_10ditto_core7catalog16provider_runtimeNtB7_15CatalogRegistry31resolve_with_hints_for_provider
FNDA:0,_RNvMs4_NtNtCseXwexsNt0j5_10ditto_core7catalog16provider_runtimeNtB7_15CatalogRegistry34provider_model_supports_capability
FNDA:0,_RNvMs4_NtNtCseXwexsNt0j5_10ditto_core7catalog16provider_runtimeNtB7_15CatalogRegistry36provider_supports_capability_by_hint
FNDA:0,_RNvMs4_NtNtCseXwexsNt0j5_10ditto_core7catalog16provider_runtimeNtB7_15CatalogRegistry38provider_capability_resolution_by_hint
FNDA:0,_RNvMs4_NtNtCseXwexsNt0j5_10ditto_core7catalog16provider_runtimeNtB7_15CatalogRegistry42provider_model_supports_capability_by_hint
FNDA:11,_RINvXs_NtNtCseXwexsNt0j5_10ditto_core7catalog16provider_runtimeNtB5_21ProviderCapabilitySetINtNtNtNtCs7dTDQl1DYhd_4core4iter6traits7collect12FromIteratorNtNtNtB9_9contracts3ids14CapabilityKindE9from_iterINtNtNtB1y_8adapters10filter_map9FilterMapINtNtNtNtCsdB7fS8jepxw_5alloc11collections5btree3map4IterB2r_NtB7_30CapabilityImplementationStatusENCNvB5_42implemented_capability_set_from_status_map0EEB9_
FNDA:0,_RINvXs_NtNtCseXwexsNt0j5_10ditto_core7catalog16provider_runtimeNtB5_21ProviderCapabilitySetINtNtNtNtCs7dTDQl1DYhd_4core4iter6traits7collect12FromIteratorNtNtNtB9_9contracts3ids14CapabilityKindE9from_iterINtNtNtB1y_8adapters6filter6FilterINtNtB3k_6copied6CopiedINtNtNtNtCsdB7fS8jepxw_5alloc11collections5btree3set4IterB2r_EENCNvMB5_BZ_10difference0EEB9_
FNDA:0,_RINvXs_NtNtCseXwexsNt0j5_10ditto_core7catalog16provider_runtimeNtB5_21ProviderCapabilitySetINtNtNtNtCs7dTDQl1DYhd_4core4iter6traits7collect12FromIteratorNtNtNtB9_9contracts3ids14CapabilityKindE9from_iterINtNtNtB1y_8adapters6filter6FilterINtNtB3k_6copied6CopiedINtNtNtNtCsdB7fS8jepxw_5alloc11collections5btree3set4IterB2r_EENCNvMB5_BZ_12intersection0EEB9_
FNDA:0,_RNCNCNvMs4_NtNtCseXwexsNt0j5_10ditto_core7catalog16provider_runtimeNtBb_15CatalogRegistry14plugin_by_hint00Bd_
FNDA:0,_RNCNvMNtNtCseXwexsNt0j5_10ditto_core7catalog16provider_runtimeNtB4_21ProviderCapabilitySet10difference0B8_
FNDA:0,_RNCNvMNtNtCseXwexsNt0j5_10ditto_core7catalog16provider_runtimeNtB4_21ProviderCapabilitySet12intersection0B8_
FNDA:4,_RNCNvMs3_NtNtCseXwexsNt0j5_10ditto_core7catalog16provider_runtimeNtB9_24ProviderPluginDescriptor15protocol_family0Bb_
FNDA:3,_RNCNvMs3_NtNtCseXwexsNt0j5_10ditto_core7catalog16provider_runtimeNtB9_24ProviderPluginDescriptor19capability_bindings0Bb_
FNDA:5,_RNCNvMs3_NtNtCseXwexsNt0j5_10ditto_core7catalog16provider_runtimeNtB9_24ProviderPluginDescriptor21capability_resolution0Bb_
FNDA:0,_RNCNvMs3_NtNtCseXwexsNt0j5_10ditto_core7catalog16provider_runtimeNtB9_24ProviderPluginDescriptor21capability_resolutions0_0Bb_
FNDA:5,_RNCNvMs3_NtNtCseXwexsNt0j5_10ditto_core7catalog16provider_runtimeNtB9_24ProviderPluginDescriptor21capability_resolutions_0Bb_
FNDA:9,_RNCNvMs4_NtNtCseXwexsNt0j5_10ditto_core7catalog16provider_runtimeNtB9_15CatalogRegistry12plugin_by_id0Bb_
FNDA:0,_RNCNvMs4_NtNtCseXwexsNt0j5_10ditto_core7catalog16provider_runtimeNtB9_15CatalogRegistry14plugin_by_hint0Bb_
FNDA:0,_RNCNvNtNtCseXwexsNt0j5_10ditto_core7catalog16provider_runtime24normalize_provider_token0B7_
FNDA:0,_RNCNvNtNtCseXwexsNt0j5_10ditto_core7catalog16provider_runtime24normalize_provider_tokens_0B7_
FNDA:3,_RNCNvNtNtCseXwexsNt0j5_10ditto_core7catalog16provider_runtime38capability_status_descriptors_from_map0B7_
FNDA:11,_RNCNvNtNtCseXwexsNt0j5_10ditto_core7catalog16provider_runtime42implemented_capability_set_from_status_map0B7_
FNDA:0,_RNvMNtNtCseXwexsNt0j5_10ditto_core7catalog16provider_runtimeNtB2_21ProviderCapabilitySet10difference
FNDA:0,_RNvMNtNtCseXwexsNt0j5_10ditto_core7catalog16provider_runtimeNtB2_21ProviderCapabilitySet11from_models
FNDA:0,_RNvMNtNtCseXwexsNt0j5_10ditto_core7catalog16provider_runtimeNtB2_21ProviderCapabilitySet12intersection
FNDA:0,_RNvMNtNtCseXwexsNt0j5_10ditto_core7catalog16provider_runtimeNtB2_21ProviderCapabilitySet13from_bindings
FNDA:0,_RNvMNtNtCseXwexsNt0j5_10ditto_core7catalog16provider_runtimeNtB2_21ProviderCapabilitySet15from_operations
FNDA:0,_RNvMNtNtCseXwexsNt0j5_10ditto_core7catalog16provider_runtimeNtB2_21ProviderCapabilitySet3len
FNDA:15,_RNvMNtNtCseXwexsNt0j5_10ditto_core7catalog16provider_runtimeNtB2_21ProviderCapabilitySet3new
FNDA:8,_RNvMNtNtCseXwexsNt0j5_10ditto_core7catalog16provider_runtimeNtB2_21ProviderCapabilitySet4iter
FNDA:0,_RNvMNtNtCseXwexsNt0j5_10ditto_core7catalog16provider_runtimeNtB2_21ProviderCapabilitySet6extend
FNDA:11,_RNvMNtNtCseXwexsNt0j5_10ditto_core7catalog16provider_runtimeNtB2_21ProviderCapabilitySet6insert
FNDA:7,_RNvMNtNtCseXwexsNt0j5_10ditto_core7catalog16provider_runtimeNtB2_21ProviderCapabilitySet8contains
FNDA:0,_RNvMNtNtCseXwexsNt0j5_10ditto_core7catalog16provider_runtimeNtB2_21ProviderCapabilitySet8is_empty
FNDA:0,_RNvMs0_NtNtCseXwexsNt0j5_10ditto_core7catalog16provider_runtimeNtB5_28ProviderCapabilityResolution14model_supports
FNDA:0,_RNvMs0_NtNtCseXwexsNt0j5_10ditto_core7catalog16provider_runtimeNtB5_28ProviderCapabilityResolution17provider_supports
FNDA:4,_RNvMs0_NtNtCseXwexsNt0j5_10ditto_core7catalog16provider_runtimeNtB5_28ProviderCapabilityResolution18effective_supports
FNDA:0,_RNvMs0_NtNtCseXwexsNt0j5_10ditto_core7catalog16provider_runtimeNtB5_28ProviderCapabilityResolution22model_is_catalog_known
FNDA:5,_RNvMs1_NtNtCseXwexsNt0j5_10ditto_core7catalog16provider_runtimeNtB5_28CapabilityScopeSetResolution14provider_scope
FNDA:0,_RNvMs1_NtNtCseXwexsNt0j5_10ditto_core7catalog16provider_runtimeNtB5_28CapabilityScopeSetResolution9for_model
FNDA:0,_RNvNtNtCseXwexsNt0j5_10ditto_core7catalog16provider_runtime20provider_match_score
FNDA:0,_RNvNtNtCseXwexsNt0j5_10ditto_core7catalog16provider_runtime24normalize_provider_token
FNDA:14,_RNvNtNtCseXwexsNt0j5_10ditto_core7catalog16provider_runtime35capability_status_map_from_bindings
FNDA:14,_RNvNtNtCseXwexsNt0j5_10ditto_core7catalog16provider_runtime35merge_capability_status_descriptors
FNDA:0,_RNvNtNtCseXwexsNt0j5_10ditto_core7catalog16provider_runtime37capability_status_map_from_operations
FNDA:3,_RNvNtNtCseXwexsNt0j5_10ditto_core7catalog16provider_runtime38capability_status_descriptors_from_map
FNDA:11,_RNvNtNtCseXwexsNt0j5_10ditto_core7catalog16provider_runtime42implemented_capability_set_from_status_map
FNF:70
FNH:28
DA:17,15
DA:18,15
DA:19,15
DA:21,11
DA:22,11
DA:23,11
DA:25,7
DA:26,7
DA:27,7
DA:29,0
DA:30,0
DA:31,0
DA:33,0
DA:34,0
DA:35,0
DA:37,8
DA:38,8
DA:39,8
DA:41,0
DA:42,0
DA:43,0
DA:45,0
DA:46,0
DA:47,0
DA:48,0
DA:49,0
DA:51,0
DA:52,0
DA:53,0
DA:54,0
DA:55,0
DA:57,0
DA:58,0
DA:59,0
DA:60,0
DA:61,0
DA:62,0
DA:64,0
DA:65,0
DA:67,0
DA:68,0
DA:69,0
DA:70,0
DA:71,0
DA:72,0
DA:74,0
DA:75,0
DA:77,0
DA:78,0
DA:79,0
DA:80,0
DA:81,0
DA:82,0
DA:83,0
DA:87,11
DA:88,11
DA:89,11
DA:90,11
DA:91,11
DA:92,11
DA:93,11
DA:98,0
DA:99,0
DA:100,0
DA:101,0
DA:102,0
DA:103,0
DA:105,0
DA:106,0
DA:108,14
DA:109,14
DA:110,14
DA:111,14
DA:112,14
DA:113,14
DA:115,14
DA:116,14
DA:118,14
DA:119,14
DA:120,14
DA:121,14
DA:122,14
DA:123,0
DA:124,0
DA:125,14
DA:127,3
DA:128,3
DA:129,3
DA:130,3
DA:131,3
DA:132,3
DA:133,3
DA:134,3
DA:135,3
DA:136,3
DA:137,3
DA:139,11
DA:140,11
DA:141,11
DA:142,11
DA:143,11
DA:144,11
DA:145,11
DA:146,11
DA:147,11
DA:148,11
DA:187,0
DA:188,0
DA:189,0
DA:191,0
DA:192,0
DA:193,0
DA:195,0
DA:196,0
DA:197,0
DA:199,4
DA:200,4
DA:201,4
DA:213,0
DA:214,0
DA:215,0
DA:216,0
DA:217,0
DA:218,0
DA:219,0
DA:220,0
DA:221,0
DA:222,0
DA:223,0
DA:225,5
DA:226,5
DA:227,5
DA:228,5
DA:229,5
DA:230,5
DA:231,5
DA:232,5
DA:246,0
DA:247,0
DA:248,0
DA:249,0
DA:250,0
DA:252,0
DA:253,0
DA:254,0
DA:256,0
DA:257,0
DA:258,0
DA:259,0
DA:260,0
DA:261,0
DA:263,0
DA:264,0
DA:265,0
DA:267,0
DA:268,0
DA:269,0
DA:271,0
DA:272,0
DA:273,0
DA:274,0
DA:275,0
DA:276,0
DA:277,0
DA:278,0
DA:279,0
DA:280,0
DA:281,0
DA:282,0
DA:283,0
DA:287,24
DA:288,24
DA:289,24
DA:291,4
DA:292,4
DA:293,4
DA:294,4
DA:295,4
DA:296,4
DA:297,4
DA:299,4
DA:300,4
DA:301,4
DA:303,14
DA:304,14
DA:305,14
DA:306,14
DA:307,14
DA:309,3
DA:310,3
DA:311,3
DA:313,0
DA:314,0
DA:315,0
DA:316,0
DA:317,0
DA:318,0
DA:320,11
DA:321,11
DA:322,11
DA:324,0
DA:325,0
DA:326,0
DA:328,3
DA:337,3
DA:338,3
DA:339,3
DA:340,3
DA:341,0
DA:343,3
DA:344,0
DA:345,3
DA:346,3
DA:347,3
DA:348,3
DA:349,3
DA:350,3
DA:351,3
DA:352,3
DA:353,3
DA:354,3
DA:355,3
DA:358,3
DA:359,3
DA:360,3
DA:361,3
DA:362,3
DA:363,3
DA:364,3
DA:365,3
DA:366,3
DA:367,3
DA:368,3
DA:369,3
DA:370,3
DA:371,3
DA:373,3
DA:374,3
DA:375,3
DA:376,3
DA:377,3
DA:378,3
DA:379,3
DA:380,3
DA:381,3
DA:382,3
DA:383,3
DA:384,3
DA:385,3
DA:386,3
DA:388,5
DA:389,5
DA:390,5
DA:391,5
DA:392,5
DA:393,5
DA:394,5
DA:395,5
DA:396,5
DA:397,5
DA:399,5
DA:400,0
DA:401,0
DA:402,0
DA:405,5
DA:408,5
DA:409,5
DA:410,5
DA:411,5
DA:412,5
DA:413,5
DA:414,5
DA:415,5
DA:416,5
DA:417,5
DA:418,5
DA:421,0
DA:422,0
DA:423,0
DA:424,0
DA:425,0
DA:426,0
DA:427,0
DA:428,0
DA:430,0
DA:431,0
DA:432,0
DA:434,0
DA:435,0
DA:436,0
DA:437,0
DA:438,0
DA:439,0
DA:440,0
DA:441,0
DA:442,0
DA:443,0
DA:444,0
DA:447,9
DA:448,9
DA:449,9
DA:450,9
DA:451,9
DA:452,9
DA:453,9
DA:454,9
DA:456,0
DA:457,0
DA:458,0
DA:459,0
DA:460,0
DA:461,0
DA:462,0
DA:463,0
DA:465,0
DA:466,0
DA:467,0
DA:468,0
DA:469,0
DA:470,0
DA:472,0
DA:473,0
DA:474,0
DA:475,0
DA:476,0
DA:477,0
DA:479,0
DA:480,0
DA:481,0
DA:482,0
DA:483,0
DA:484,0
DA:485,0
DA:486,0
DA:488,4
DA:489,4
DA:490,4
DA:491,4
DA:492,4
DA:493,4
DA:494,4
DA:495,4
DA:496,4
DA:497,4
DA:499,0
DA:500,0
DA:501,0
DA:503,0
DA:504,0
DA:505,0
DA:506,0
DA:507,0
DA:508,0
DA:510,0
DA:511,0
DA:512,0
DA:513,0
DA:514,0
DA:515,0
DA:516,0
DA:518,0
DA:519,0
DA:520,0
DA:521,0
DA:522,0
DA:524,0
DA:525,0
DA:527,0
DA:529,0
DA:530,0
DA:531,0
DA:532,0
DA:533,0
DA:534,0
DA:536,0
DA:537,0
DA:538,0
DA:540,0
DA:542,0
DA:543,0
DA:544,0
DA:545,0
DA:546,0
DA:547,0
DA:548,0
DA:550,0
DA:551,0
DA:552,0
DA:553,0
DA:554,0
DA:556,0
DA:557,0
DA:559,0
DA:561,0
DA:562,0
DA:563,0
DA:564,0
DA:565,0
DA:566,0
DA:567,0
DA:568,0
DA:569,0
DA:570,0
DA:572,0
DA:573,0
DA:574,0
DA:575,0
DA:576,0
DA:577,0
DA:578,0
DA:579,0
DA:580,0
DA:581,0
BRF:0
BRH:0
LF:425
LH:180
end_of_record
SF:/root/autodl-tmp/zjj/p/ditto-llm/crates/ditto-core/src/catalog/reference_schema.rs
FN:221,_RNCNvMNtNtCseXwexsNt0j5_10ditto_core7catalog16reference_schemaNtB4_29ReferenceProviderModelCatalog20validate_expectation0B8_
FN:128,_RNCNvMNtNtCseXwexsNt0j5_10ditto_core7catalog16reference_schemaNtB4_29ReferenceProviderModelCatalog23catalog_api_surface_set0B8_
FN:71,_RNCNvMNtNtCseXwexsNt0j5_10ditto_core7catalog16reference_schemaNtB4_29ReferenceProviderModelCatalog8validate0B8_
FN:88,_RNCNvMNtNtCseXwexsNt0j5_10ditto_core7catalog16reference_schemaNtB4_29ReferenceProviderModelCatalog8validates_0B8_
FN:358,_RNCNvMs1_NtNtCseXwexsNt0j5_10ditto_core7catalog16reference_schemaNtB7_19ReferenceModelEntry18record_surface_set0Bb_
FN:360,_RNCNvMs1_NtNtCseXwexsNt0j5_10ditto_core7catalog16reference_schemaNtB7_19ReferenceModelEntry18record_surface_sets0_0Bb_
FN:359,_RNCNvMs1_NtNtCseXwexsNt0j5_10ditto_core7catalog16reference_schemaNtB7_19ReferenceModelEntry18record_surface_sets_0Bb_
FN:19,_RNvMNtNtCseXwexsNt0j5_10ditto_core7catalog16reference_schemaNtB2_29ReferenceProviderModelCatalog13from_json_str
FN:23,_RNvMNtNtCseXwexsNt0j5_10ditto_core7catalog16reference_schemaNtB2_29ReferenceProviderModelCatalog13from_toml_str
FN:132,_RNvMNtNtCseXwexsNt0j5_10ditto_core7catalog16reference_schemaNtB2_29ReferenceProviderModelCatalog18capability_profile
FN:112,_RNvMNtNtCseXwexsNt0j5_10ditto_core7catalog16reference_schemaNtB2_29ReferenceProviderModelCatalog20canonical_json_value
FN:149,_RNvMNtNtCseXwexsNt0j5_10ditto_core7catalog16reference_schemaNtB2_29ReferenceProviderModelCatalog20validate_expectation
FN:125,_RNvMNtNtCseXwexsNt0j5_10ditto_core7catalog16reference_schemaNtB2_29ReferenceProviderModelCatalog23catalog_api_surface_set
FN:44,_RNvMNtNtCseXwexsNt0j5_10ditto_core7catalog16reference_schemaNtB2_29ReferenceProviderModelCatalog8validate
FN:297,_RNvMs0_NtNtCseXwexsNt0j5_10ditto_core7catalog16reference_schemaNtB5_21ReferenceProviderAuth20canonical_json_value
FN:327,_RNvMs1_NtNtCseXwexsNt0j5_10ditto_core7catalog16reference_schemaNtB5_19ReferenceModelEntry15api_surface_set
FN:331,_RNvMs1_NtNtCseXwexsNt0j5_10ditto_core7catalog16reference_schemaNtB5_19ReferenceModelEntry18capability_profile
FN:355,_RNvMs1_NtNtCseXwexsNt0j5_10ditto_core7catalog16reference_schemaNtB5_19ReferenceModelEntry18record_surface_set
FN:364,_RNvMs1_NtNtCseXwexsNt0j5_10ditto_core7catalog16reference_schemaNtB5_19ReferenceModelEntry20canonical_json_value
FN:420,_RNvMs2_NtNtCseXwexsNt0j5_10ditto_core7catalog16reference_schemaNtB5_20ReferenceModelRecord17requires_endpoint
FN:424,_RNvMs2_NtNtCseXwexsNt0j5_10ditto_core7catalog16reference_schemaNtB5_20ReferenceModelRecord20canonical_json_value
FN:410,_RNvMs2_NtNtCseXwexsNt0j5_10ditto_core7catalog16reference_schemaNtB5_20ReferenceModelRecord21describes_api_surface
FN:416,_RNvMs2_NtNtCseXwexsNt0j5_10ditto_core7catalog16reference_schemaNtB5_20ReferenceModelRecord29requires_explicit_api_surface
FN:464,_RNvMs3_NtNtCseXwexsNt0j5_10ditto_core7catalog16reference_schemaNtB5_32ReferenceCatalogValidationReport8is_clean
FN:494,_RNvMs4_NtNtCseXwexsNt0j5_10ditto_core7catalog16reference_schemaNtB5_33ReferenceCatalogExpectationReport8is_clean
FN:273,_RNvMs_NtNtCseXwexsNt0j5_10ditto_core7catalog16reference_schemaNtB4_27ReferenceProviderDescriptor20canonical_json_value
FN:578,_RNvNtNtCseXwexsNt0j5_10ditto_core7catalog16reference_schema19canonical_value_key
FN:559,_RNvNtNtCseXwexsNt0j5_10ditto_core7catalog16reference_schema22insert_optional_string
FN:569,_RNvNtNtCseXwexsNt0j5_10ditto_core7catalog16reference_schema22insert_vendor_metadata
FN:664,_RNvNtNtCseXwexsNt0j5_10ditto_core7catalog16reference_schema25operation_for_api_surface
FN:660,_RNvNtNtCseXwexsNt0j5_10ditto_core7catalog16reference_schema27is_global_reference_surface
FN:656,_RNvNtNtCseXwexsNt0j5_10ditto_core7catalog16reference_schema44core_provider_reference_catalog_expectations
FN:27,_RINvMNtNtCseXwexsNt0j5_10ditto_core7catalog16reference_schemaNtB3_29ReferenceProviderModelCatalog9from_pathpEB7_
FN:31,_RNCINvMNtNtCseXwexsNt0j5_10ditto_core7catalog16reference_schemaNtB5_29ReferenceProviderModelCatalog9from_pathpE0B9_
FN:35,_RNCINvMNtNtCseXwexsNt0j5_10ditto_core7catalog16reference_schemaNtB5_29ReferenceProviderModelCatalog9from_pathpEs_0B9_
FN:27,_RINvMNtNtCseXwexsNt0j5_10ditto_core7catalog16reference_schemaNtB3_29ReferenceProviderModelCatalog9from_pathRNtNtCs9hLsKkECTMM_3std4path7PathBufECslQMMUIzigPE_23ditto_catalog_dashboard
FN:31,_RNCINvMNtNtCseXwexsNt0j5_10ditto_core7catalog16reference_schemaNtB5_29ReferenceProviderModelCatalog9from_pathRNtNtCs9hLsKkECTMM_3std4path7PathBufE0CslQMMUIzigPE_23ditto_catalog_dashboard
FN:35,_RNCINvMNtNtCseXwexsNt0j5_10ditto_core7catalog16reference_schemaNtB5_29ReferenceProviderModelCatalog9from_pathRNtNtCs9hLsKkECTMM_3std4path7PathBufEs_0CslQMMUIzigPE_23ditto_catalog_dashboard
FNDA:0,_RNCNvMNtNtCseXwexsNt0j5_10ditto_core7catalog16reference_schemaNtB4_29ReferenceProviderModelCatalog20validate_expectation0B8_
FNDA:0,_RNCNvMNtNtCseXwexsNt0j5_10ditto_core7catalog16reference_schemaNtB4_29ReferenceProviderModelCatalog23catalog_api_surface_set0B8_
FNDA:0,_RNCNvMNtNtCseXwexsNt0j5_10ditto_core7catalog16reference_schemaNtB4_29ReferenceProviderModelCatalog8validate0B8_
FNDA:0,_RNCNvMNtNtCseXwexsNt0j5_10ditto_core7catalog16reference_schemaNtB4_29ReferenceProviderModelCatalog8validates_0B8_
FNDA:0,_RNCNvMs1_NtNtCseXwexsNt0j5_10ditto_core7catalog16reference_schemaNtB7_19ReferenceModelEntry18record_surface_set0Bb_
FNDA:0,_RNCNvMs1_NtNtCseXwexsNt0j5_10ditto_core7catalog16reference_schemaNtB7_19ReferenceModelEntry18record_surface_sets0_0Bb_
FNDA:0,_RNCNvMs1_NtNtCseXwexsNt0j5_10ditto_core7catalog16reference_schemaNtB7_19ReferenceModelEntry18record_surface_sets_0Bb_
FNDA:0,_RNvMNtNtCseXwexsNt0j5_10ditto_core7catalog16reference_schemaNtB2_29ReferenceProviderModelCatalog13from_json_str
FNDA:0,_RNvMNtNtCseXwexsNt0j5_10ditto_core7catalog16reference_schemaNtB2_29ReferenceProviderModelCatalog13from_toml_str
FNDA:0,_RNvMNtNtCseXwexsNt0j5_10ditto_core7catalog16reference_schemaNtB2_29ReferenceProviderModelCatalog18capability_profile
FNDA:0,_RNvMNtNtCseXwexsNt0j5_10ditto_core7catalog16reference_schemaNtB2_29ReferenceProviderModelCatalog20canonical_json_value
FNDA:0,_RNvMNtNtCseXwexsNt0j5_10ditto_core7catalog16reference_schemaNtB2_29ReferenceProviderModelCatalog20validate_expectation
FNDA:0,_RNvMNtNtCseXwexsNt0j5_10ditto_core7catalog16reference_schemaNtB2_29ReferenceProviderModelCatalog23catalog_api_surface_set
FNDA:0,_RNvMNtNtCseXwexsNt0j5_10ditto_core7catalog16reference_schemaNtB2_29ReferenceProviderModelCatalog8validate
FNDA:0,_RNvMs0_NtNtCseXwexsNt0j5_10ditto_core7catalog16reference_schemaNtB5_21ReferenceProviderAuth20canonical_json_value
FNDA:0,_RNvMs1_NtNtCseXwexsNt0j5_10ditto_core7catalog16reference_schemaNtB5_19ReferenceModelEntry15api_surface_set
FNDA:0,_RNvMs1_NtNtCseXwexsNt0j5_10ditto_core7catalog16reference_schemaNtB5_19ReferenceModelEntry18capability_profile
FNDA:0,_RNvMs1_NtNtCseXwexsNt0j5_10ditto_core7catalog16reference_schemaNtB5_19ReferenceModelEntry18record_surface_set
FNDA:0,_RNvMs1_NtNtCseXwexsNt0j5_10ditto_core7catalog16reference_schemaNtB5_19ReferenceModelEntry20canonical_json_value
FNDA:0,_RNvMs2_NtNtCseXwexsNt0j5_10ditto_core7catalog16reference_schemaNtB5_20ReferenceModelRecord17requires_endpoint
FNDA:0,_RNvMs2_NtNtCseXwexsNt0j5_10ditto_core7catalog16reference_schemaNtB5_20ReferenceModelRecord20canonical_json_value
FNDA:0,_RNvMs2_NtNtCseXwexsNt0j5_10ditto_core7catalog16reference_schemaNtB5_20ReferenceModelRecord21describes_api_surface
FNDA:0,_RNvMs2_NtNtCseXwexsNt0j5_10ditto_core7catalog16reference_schemaNtB5_20ReferenceModelRecord29requires_explicit_api_surface
FNDA:0,_RNvMs3_NtNtCseXwexsNt0j5_10ditto_core7catalog16reference_schemaNtB5_32ReferenceCatalogValidationReport8is_clean
FNDA:0,_RNvMs4_NtNtCseXwexsNt0j5_10ditto_core7catalog16reference_schemaNtB5_33ReferenceCatalogExpectationReport8is_clean
FNDA:0,_RNvMs_NtNtCseXwexsNt0j5_10ditto_core7catalog16reference_schemaNtB4_27ReferenceProviderDescriptor20canonical_json_value
FNDA:0,_RNvNtNtCseXwexsNt0j5_10ditto_core7catalog16reference_schema19canonical_value_key
FNDA:0,_RNvNtNtCseXwexsNt0j5_10ditto_core7catalog16reference_schema22insert_optional_string
FNDA:0,_RNvNtNtCseXwexsNt0j5_10ditto_core7catalog16reference_schema22insert_vendor_metadata
FNDA:0,_RNvNtNtCseXwexsNt0j5_10ditto_core7catalog16reference_schema25operation_for_api_surface
FNDA:0,_RNvNtNtCseXwexsNt0j5_10ditto_core7catalog16reference_schema27is_global_reference_surface
FNDA:0,_RNvNtNtCseXwexsNt0j5_10ditto_core7catalog16reference_schema44core_provider_reference_catalog_expectations
FNDA:0,_RINvMNtNtCseXwexsNt0j5_10ditto_core7catalog16reference_schemaNtB3_29ReferenceProviderModelCatalog9from_pathpEB7_
FNDA:0,_RNCINvMNtNtCseXwexsNt0j5_10ditto_core7catalog16reference_schemaNtB5_29ReferenceProviderModelCatalog9from_pathpE0B9_
FNDA:0,_RNCINvMNtNtCseXwexsNt0j5_10ditto_core7catalog16reference_schemaNtB5_29ReferenceProviderModelCatalog9from_pathpEs_0B9_
FNDA:0,_RINvMNtNtCseXwexsNt0j5_10ditto_core7catalog16reference_schemaNtB3_29ReferenceProviderModelCatalog9from_pathRNtNtCs9hLsKkECTMM_3std4path7PathBufECslQMMUIzigPE_23ditto_catalog_dashboard
FNDA:0,_RNCINvMNtNtCseXwexsNt0j5_10ditto_core7catalog16reference_schemaNtB5_29ReferenceProviderModelCatalog9from_pathRNtNtCs9hLsKkECTMM_3std4path7PathBufE0CslQMMUIzigPE_23ditto_catalog_dashboard
FNDA:0,_RNCINvMNtNtCseXwexsNt0j5_10ditto_core7catalog16reference_schemaNtB5_29ReferenceProviderModelCatalog9from_pathRNtNtCs9hLsKkECTMM_3std4path7PathBufEs_0CslQMMUIzigPE_23ditto_catalog_dashboard
FNF:35
FNH:0
DA:19,0
DA:20,0
DA:21,0
DA:23,0
DA:24,0
DA:25,0
DA:27,0
DA:28,0
DA:29,0
DA:30,0
DA:31,0
DA:32,0
DA:33,0
DA:35,0
DA:36,0
DA:37,0
DA:38,0
DA:39,0
DA:40,0
DA:42,0
DA:44,0
DA:45,0
DA:47,0
DA:48,0
DA:49,0
DA:50,0
DA:51,0
DA:52,0
DA:53,0
DA:54,0
DA:55,0
DA:56,0
DA:58,0
DA:59,0
DA:60,0
DA:61,0
DA:62,0
DA:63,0
DA:64,0
DA:65,0
DA:67,0
DA:68,0
DA:69,0
DA:70,0
DA:71,0
DA:72,0
DA:73,0
DA:75,0
DA:76,0
DA:77,0
DA:78,0
DA:79,0
DA:80,0
DA:81,0
DA:82,0
DA:83,0
DA:85,0
DA:86,0
DA:87,0
DA:88,0
DA:90,0
DA:91,0
DA:92,0
DA:93,0
DA:94,0
DA:95,0
DA:96,0
DA:97,0
DA:98,0
DA:99,0
DA:100,0
DA:101,0
DA:102,0
DA:103,0
DA:104,0
DA:105,0
DA:109,0
DA:110,0
DA:112,0
DA:113,0
DA:114,0
DA:116,0
DA:117,0
DA:118,0
DA:119,0
DA:120,0
DA:122,0
DA:123,0
DA:125,0
DA:126,0
DA:127,0
DA:128,0
DA:129,0
DA:130,0
DA:132,0
DA:133,0
DA:134,0
DA:136,0
DA:137,0
DA:138,0
DA:139,0
DA:140,0
DA:142,0
DA:143,0
DA:144,0
DA:145,0
DA:146,0
DA:147,0
DA:149,0
DA:150,0
DA:151,0
DA:152,0
DA:153,0
DA:155,0
DA:156,0
DA:157,0
DA:158,0
DA:159,0
DA:160,0
DA:161,0
DA:162,0
DA:163,0
DA:165,0
DA:166,0
DA:167,0
DA:168,0
DA:169,0
DA:170,0
DA:171,0
DA:172,0
DA:173,0
DA:174,0
DA:175,0
DA:176,0
DA:178,0
DA:179,0
DA:180,0
DA:181,0
DA:182,0
DA:183,0
DA:184,0
DA:185,0
DA:186,0
DA:187,0
DA:188,0
DA:189,0
DA:191,0
DA:192,0
DA:193,0
DA:194,0
DA:195,0
DA:196,0
DA:197,0
DA:198,0
DA:199,0
DA:200,0
DA:201,0
DA:202,0
DA:204,0
DA:205,0
DA:206,0
DA:207,0
DA:208,0
DA:209,0
DA:210,0
DA:211,0
DA:212,0
DA:213,0
DA:214,0
DA:215,0
DA:217,0
DA:218,0
DA:219,0
DA:220,0
DA:221,0
DA:222,0
DA:223,0
DA:224,0
DA:225,0
DA:226,0
DA:227,0
DA:228,0
DA:229,0
DA:230,0
DA:232,0
DA:233,0
DA:234,0
DA:235,0
DA:236,0
DA:237,0
DA:238,0
DA:239,0
DA:241,0
DA:242,0
DA:243,0
DA:244,0
DA:245,0
DA:246,0
DA:247,0
DA:248,0
DA:249,0
DA:252,0
DA:253,0
DA:273,0
DA:274,0
DA:275,0
DA:276,0
DA:277,0
DA:278,0
DA:279,0
DA:280,0
DA:281,0
DA:282,0
DA:283,0
DA:297,0
DA:298,0
DA:299,0
DA:300,0
DA:301,0
DA:303,0
DA:304,0
DA:305,0
DA:307,0
DA:308,0
DA:309,0
DA:327,0
DA:328,0
DA:329,0
DA:331,0
DA:332,0
DA:333,0
DA:334,0
DA:336,0
DA:337,0
DA:338,0
DA:339,0
DA:341,0
DA:342,0
DA:343,0
DA:344,0
DA:345,0
DA:348,0
DA:349,0
DA:350,0
DA:351,0
DA:352,0
DA:353,0
DA:355,0
DA:356,0
DA:357,0
DA:358,0
DA:359,0
DA:360,0
DA:361,0
DA:362,0
DA:364,0
DA:365,0
DA:366,0
DA:367,0
DA:369,0
DA:370,0
DA:371,0
DA:372,0
DA:373,0
DA:376,0
DA:377,0
DA:378,0
DA:379,0
DA:380,0
DA:381,0
DA:382,0
DA:384,0
DA:385,0
DA:386,0
DA:410,0
DA:411,0
DA:412,0
DA:413,0
DA:414,0
DA:416,0
DA:417,0
DA:418,0
DA:420,0
DA:421,0
DA:422,0
DA:424,0
DA:425,0
DA:426,0
DA:427,0
DA:428,0
DA:429,0
DA:430,0
DA:431,0
DA:432,0
DA:434,0
DA:435,0
DA:436,0
DA:438,0
DA:439,0
DA:440,0
DA:441,0
DA:464,0
DA:465,0
DA:466,0
DA:494,0
DA:495,0
DA:496,0
DA:559,0
DA:560,0
DA:561,0
DA:562,0
DA:563,0
DA:564,0
DA:565,0
DA:566,0
DA:567,0
DA:569,0
DA:570,0
DA:571,0
DA:572,0
DA:573,0
DA:574,0
DA:575,0
DA:576,0
DA:578,0
DA:579,0
DA:580,0
DA:656,0
DA:657,0
DA:658,0
DA:660,0
DA:661,0
DA:662,0
DA:664,0
DA:665,0
DA:666,0
DA:667,0
DA:668,0
DA:669,0
DA:670,0
DA:671,0
DA:672,0
DA:673,0
DA:674,0
DA:675,0
DA:676,0
DA:677,0
DA:678,0
DA:679,0
DA:680,0
DA:681,0
DA:682,0
DA:683,0
DA:684,0
DA:685,0
DA:686,0
DA:687,0
DA:689,0
DA:690,0
DA:691,0
DA:692,0
DA:693,0
DA:694,0
DA:695,0
DA:696,0
DA:697,0
DA:698,0
DA:699,0
DA:700,0
DA:701,0
DA:702,0
DA:704,0
BRF:0
BRH:0
LF:381
LH:0
end_of_record
SF:/root/autodl-tmp/zjj/p/ditto-llm/crates/ditto-core/src/config/auth.rs
FN:473,_RINvNtNtCseXwexsNt0j5_10ditto_core6config4auth11read_cappedNtNtCsp77RDs5XIs_5tokio7process11ChildStderrEB6_
FN:473,_RINvNtNtCseXwexsNt0j5_10ditto_core6config4auth11read_cappedNtNtCsp77RDs5XIs_5tokio7process11ChildStdoutEB6_
FN:476,_RNCINvNtNtCseXwexsNt0j5_10ditto_core6config4auth11read_cappedNtNtCsp77RDs5XIs_5tokio7process11ChildStderrE0B8_
FN:476,_RNCINvNtNtCseXwexsNt0j5_10ditto_core6config4auth11read_cappedNtNtCsp77RDs5XIs_5tokio7process11ChildStdoutE0B8_
FN:315,_RNCNCNvNtNtCseXwexsNt0j5_10ditto_core6config4auth16run_auth_command00B9_
FN:329,_RNCNCNvNtNtCseXwexsNt0j5_10ditto_core6config4auth16run_auth_command0s0_0B9_
FN:333,_RNCNCNvNtNtCseXwexsNt0j5_10ditto_core6config4auth16run_auth_command0s1_0B9_
FN:342,_RNCNCNvNtNtCseXwexsNt0j5_10ditto_core6config4auth16run_auth_command0s2_0B9_
FN:368,_RNCNCNvNtNtCseXwexsNt0j5_10ditto_core6config4auth16run_auth_command0s3_0B9_
FN:371,_RNCNCNvNtNtCseXwexsNt0j5_10ditto_core6config4auth16run_auth_command0s4_0B9_
FN:325,_RNCNCNvNtNtCseXwexsNt0j5_10ditto_core6config4auth16run_auth_command0s_0B9_
FN:191,_RNCNCNvNtNtCseXwexsNt0j5_10ditto_core6config4auth38resolve_provider_request_auth_optional00B9_
FN:42,_RNCNvMs_NtNtCseXwexsNt0j5_10ditto_core6config4authNtB6_8HttpAuth12header_value0Ba_
FN:51,_RNCNvMs_NtNtCseXwexsNt0j5_10ditto_core6config4authNtB6_8HttpAuth12header_values_0Ba_
FN:309,_RNCNvNtNtCseXwexsNt0j5_10ditto_core6config4auth16run_auth_command0B7_
FN:211,_RNCNvNtNtCseXwexsNt0j5_10ditto_core6config4auth18resolve_auth_token0B7_
FN:294,_RNCNvNtNtCseXwexsNt0j5_10ditto_core6config4auth20auth_command_timeout0B7_
FN:302,_RNCNvNtNtCseXwexsNt0j5_10ditto_core6config4auth20auth_command_timeouts0_0B7_
FN:303,_RNCNvNtNtCseXwexsNt0j5_10ditto_core6config4auth20auth_command_timeouts1_0B7_
FN:295,_RNCNvNtNtCseXwexsNt0j5_10ditto_core6config4auth20auth_command_timeouts_0B7_
FN:437,_RNCNvNtNtCseXwexsNt0j5_10ditto_core6config4auth24parse_auth_command_token0B7_
FN:445,_RNCNvNtNtCseXwexsNt0j5_10ditto_core6config4auth24parse_auth_command_tokens0_0B7_
FN:452,_RNCNvNtNtCseXwexsNt0j5_10ditto_core6config4auth24parse_auth_command_tokens1_0B7_
FN:453,_RNCNvNtNtCseXwexsNt0j5_10ditto_core6config4auth24parse_auth_command_tokens2_0B7_
FN:441,_RNCNvNtNtCseXwexsNt0j5_10ditto_core6config4auth24parse_auth_command_tokens_0B7_
FN:266,_RNCNvNtNtCseXwexsNt0j5_10ditto_core6config4auth36resolve_auth_token_with_default_keys0B7_
FN:178,_RNCNvNtNtCseXwexsNt0j5_10ditto_core6config4auth38resolve_provider_request_auth_optional0B7_
FN:126,_RNCNvNtNtCseXwexsNt0j5_10ditto_core6config4auth38resolve_request_auth_with_default_keys0B7_
FN:280,_RNCNvNtNtCseXwexsNt0j5_10ditto_core6config4auth38resolve_secret_if_needed_with_resolver0B7_
FN:221,_RNCNvNtNtCseXwexsNt0j5_10ditto_core6config4auth49resolve_auth_token_with_default_keys_and_resolver0B7_
FN:80,_RNvMs1_NtNtCseXwexsNt0j5_10ditto_core6config4authNtB5_14QueryParamAuth3new
FN:100,_RNvMs1_NtNtCseXwexsNt0j5_10ditto_core6config4authNtB5_14QueryParamAuth5apply
FN:112,_RNvMs2_NtNtCseXwexsNt0j5_10ditto_core6config4authNtB5_11RequestAuth5apply
FN:34,_RNvMs_NtNtCseXwexsNt0j5_10ditto_core6config4authNtB4_8HttpAuth12header_value
FN:59,_RNvMs_NtNtCseXwexsNt0j5_10ditto_core6config4authNtB4_8HttpAuth5apply
FN:30,_RNvMs_NtNtCseXwexsNt0j5_10ditto_core6config4authNtB4_8HttpAuth6bearer
FN:309,_RNvNtNtCseXwexsNt0j5_10ditto_core6config4auth16run_auth_command
FN:211,_RNvNtNtCseXwexsNt0j5_10ditto_core6config4auth18resolve_auth_token
FN:291,_RNvNtNtCseXwexsNt0j5_10ditto_core6config4auth20auth_command_timeout
FN:149,_RNvNtNtCseXwexsNt0j5_10ditto_core6config4auth24default_api_key_env_auth
FN:414,_RNvNtNtCseXwexsNt0j5_10ditto_core6config4auth24parse_auth_command_token
FN:262,_RNvNtNtCseXwexsNt0j5_10ditto_core6config4auth36resolve_auth_token_with_default_keys
FN:172,_RNvNtNtCseXwexsNt0j5_10ditto_core6config4auth38resolve_provider_request_auth_optional
FN:160,_RNvNtNtCseXwexsNt0j5_10ditto_core6config4auth38resolve_provider_request_auth_required
FN:120,_RNvNtNtCseXwexsNt0j5_10ditto_core6config4auth38resolve_request_auth_with_default_keys
FN:276,_RNvNtNtCseXwexsNt0j5_10ditto_core6config4auth38resolve_secret_if_needed_with_resolver
FN:216,_RNvNtNtCseXwexsNt0j5_10ditto_core6config4auth49resolve_auth_token_with_default_keys_and_resolver
FN:21,_RNvXNtNtCseXwexsNt0j5_10ditto_core6config4authNtB2_8HttpAuthNtNtCs7dTDQl1DYhd_4core3fmt5Debug3fmt
FN:71,_RNvXs0_NtNtCseXwexsNt0j5_10ditto_core6config4authNtB5_14QueryParamAuthNtNtCs7dTDQl1DYhd_4core3fmt5Debug3fmt
FN:166,_RNCNvNtNtCseXwexsNt0j5_10ditto_core6config4auth38resolve_provider_request_auth_required0B7_
FNDA:0,_RINvNtNtCseXwexsNt0j5_10ditto_core6config4auth11read_cappedNtNtCsp77RDs5XIs_5tokio7process11ChildStderrEB6_
FNDA:0,_RINvNtNtCseXwexsNt0j5_10ditto_core6config4auth11read_cappedNtNtCsp77RDs5XIs_5tokio7process11ChildStdoutEB6_
FNDA:0,_RNCINvNtNtCseXwexsNt0j5_10ditto_core6config4auth11read_cappedNtNtCsp77RDs5XIs_5tokio7process11ChildStderrE0B8_
FNDA:0,_RNCINvNtNtCseXwexsNt0j5_10ditto_core6config4auth11read_cappedNtNtCsp77RDs5XIs_5tokio7process11ChildStdoutE0B8_
FNDA:0,_RNCNCNvNtNtCseXwexsNt0j5_10ditto_core6config4auth16run_auth_command00B9_
FNDA:0,_RNCNCNvNtNtCseXwexsNt0j5_10ditto_core6config4auth16run_auth_command0s0_0B9_
FNDA:0,_RNCNCNvNtNtCseXwexsNt0j5_10ditto_core6config4auth16run_auth_command0s1_0B9_
FNDA:0,_RNCNCNvNtNtCseXwexsNt0j5_10ditto_core6config4auth16run_auth_command0s2_0B9_
FNDA:0,_RNCNCNvNtNtCseXwexsNt0j5_10ditto_core6config4auth16run_auth_command0s3_0B9_
FNDA:0,_RNCNCNvNtNtCseXwexsNt0j5_10ditto_core6config4auth16run_auth_command0s4_0B9_
FNDA:0,_RNCNCNvNtNtCseXwexsNt0j5_10ditto_core6config4auth16run_auth_command0s_0B9_
FNDA:0,_RNCNCNvNtNtCseXwexsNt0j5_10ditto_core6config4auth38resolve_provider_request_auth_optional00B9_
FNDA:0,_RNCNvMs_NtNtCseXwexsNt0j5_10ditto_core6config4authNtB6_8HttpAuth12header_value0Ba_
FNDA:0,_RNCNvMs_NtNtCseXwexsNt0j5_10ditto_core6config4authNtB6_8HttpAuth12header_values_0Ba_
FNDA:0,_RNCNvNtNtCseXwexsNt0j5_10ditto_core6config4auth16run_auth_command0B7_
FNDA:0,_RNCNvNtNtCseXwexsNt0j5_10ditto_core6config4auth18resolve_auth_token0B7_
FNDA:0,_RNCNvNtNtCseXwexsNt0j5_10ditto_core6config4auth20auth_command_timeout0B7_
FNDA:0,_RNCNvNtNtCseXwexsNt0j5_10ditto_core6config4auth20auth_command_timeouts0_0B7_
FNDA:0,_RNCNvNtNtCseXwexsNt0j5_10ditto_core6config4auth20auth_command_timeouts1_0B7_
FNDA:0,_RNCNvNtNtCseXwexsNt0j5_10ditto_core6config4auth20auth_command_timeouts_0B7_
FNDA:0,_RNCNvNtNtCseXwexsNt0j5_10ditto_core6config4auth24parse_auth_command_token0B7_
FNDA:0,_RNCNvNtNtCseXwexsNt0j5_10ditto_core6config4auth24parse_auth_command_tokens0_0B7_
FNDA:0,_RNCNvNtNtCseXwexsNt0j5_10ditto_core6config4auth24parse_auth_command_tokens1_0B7_
FNDA:0,_RNCNvNtNtCseXwexsNt0j5_10ditto_core6config4auth24parse_auth_command_tokens2_0B7_
FNDA:0,_RNCNvNtNtCseXwexsNt0j5_10ditto_core6config4auth24parse_auth_command_tokens_0B7_
FNDA:0,_RNCNvNtNtCseXwexsNt0j5_10ditto_core6config4auth36resolve_auth_token_with_default_keys0B7_
FNDA:0,_RNCNvNtNtCseXwexsNt0j5_10ditto_core6config4auth38resolve_provider_request_auth_optional0B7_
FNDA:0,_RNCNvNtNtCseXwexsNt0j5_10ditto_core6config4auth38resolve_request_auth_with_default_keys0B7_
FNDA:0,_RNCNvNtNtCseXwexsNt0j5_10ditto_core6config4auth38resolve_secret_if_needed_with_resolver0B7_
FNDA:0,_RNCNvNtNtCseXwexsNt0j5_10ditto_core6config4auth49resolve_auth_token_with_default_keys_and_resolver0B7_
FNDA:0,_RNvMs1_NtNtCseXwexsNt0j5_10ditto_core6config4authNtB5_14QueryParamAuth3new
FNDA:0,_RNvMs1_NtNtCseXwexsNt0j5_10ditto_core6config4authNtB5_14QueryParamAuth5apply
FNDA:0,_RNvMs2_NtNtCseXwexsNt0j5_10ditto_core6config4authNtB5_11RequestAuth5apply
FNDA:0,_RNvMs_NtNtCseXwexsNt0j5_10ditto_core6config4authNtB4_8HttpAuth12header_value
FNDA:0,_RNvMs_NtNtCseXwexsNt0j5_10ditto_core6config4authNtB4_8HttpAuth5apply
FNDA:0,_RNvMs_NtNtCseXwexsNt0j5_10ditto_core6config4authNtB4_8HttpAuth6bearer
FNDA:0,_RNvNtNtCseXwexsNt0j5_10ditto_core6config4auth16run_auth_command
FNDA:0,_RNvNtNtCseXwexsNt0j5_10ditto_core6config4auth18resolve_auth_token
FNDA:0,_RNvNtNtCseXwexsNt0j5_10ditto_core6config4auth20auth_command_timeout
FNDA:0,_RNvNtNtCseXwexsNt0j5_10ditto_core6config4auth24default_api_key_env_auth
FNDA:0,_RNvNtNtCseXwexsNt0j5_10ditto_core6config4auth24parse_auth_command_token
FNDA:0,_RNvNtNtCseXwexsNt0j5_10ditto_core6config4auth36resolve_auth_token_with_default_keys
FNDA:0,_RNvNtNtCseXwexsNt0j5_10ditto_core6config4auth38resolve_provider_request_auth_optional
FNDA:0,_RNvNtNtCseXwexsNt0j5_10ditto_core6config4auth38resolve_provider_request_auth_required
FNDA:0,_RNvNtNtCseXwexsNt0j5_10ditto_core6config4auth38resolve_request_auth_with_default_keys
FNDA:0,_RNvNtNtCseXwexsNt0j5_10ditto_core6config4auth38resolve_secret_if_needed_with_resolver
FNDA:0,_RNvNtNtCseXwexsNt0j5_10ditto_core6config4auth49resolve_auth_token_with_default_keys_and_resolver
FNDA:0,_RNvXNtNtCseXwexsNt0j5_10ditto_core6config4authNtB2_8HttpAuthNtNtCs7dTDQl1DYhd_4core3fmt5Debug3fmt
FNDA:0,_RNvXs0_NtNtCseXwexsNt0j5_10ditto_core6config4authNtB5_14QueryParamAuthNtNtCs7dTDQl1DYhd_4core3fmt5Debug3fmt
FNDA:0,_RNCNvNtNtCseXwexsNt0j5_10ditto_core6config4auth38resolve_provider_request_auth_required0B7_
FNF:48
FNH:0
DA:21,0
DA:22,0
DA:23,0
DA:24,0
DA:25,0
DA:26,0
DA:30,0
DA:31,0
DA:32,0
DA:34,0
DA:35,0
DA:36,0
DA:37,0
DA:38,0
DA:39,0
DA:40,0
DA:42,0
DA:43,0
DA:44,0
DA:46,0
DA:47,0
DA:48,0
DA:49,0
DA:50,0
DA:51,0
DA:52,0
DA:53,0
DA:54,0
DA:56,0
DA:57,0
DA:59,0
DA:60,0
DA:61,0
DA:71,0
DA:72,0
DA:73,0
DA:74,0
DA:75,0
DA:76,0
DA:80,0
DA:81,0
DA:82,0
DA:83,0
DA:84,0
DA:85,0
DA:86,0
DA:88,0
DA:89,0
DA:90,0
DA:91,0
DA:92,0
DA:94,0
DA:95,0
DA:96,0
DA:97,0
DA:98,0
DA:100,0
DA:101,0
DA:102,0
DA:112,0
DA:113,0
DA:114,0
DA:115,0
DA:117,0
DA:120,0
DA:121,0
DA:122,0
DA:123,0
DA:124,0
DA:125,0
DA:126,0
DA:127,0
DA:129,0
DA:130,0
DA:131,0
DA:132,0
DA:134,0
DA:135,0
DA:136,0
DA:139,0
DA:142,0
DA:143,0
DA:144,0
DA:147,0
DA:149,0
DA:150,0
DA:151,0
DA:160,0
DA:161,0
DA:162,0
DA:163,0
DA:164,0
DA:165,0
DA:166,0
DA:167,0
DA:168,0
DA:169,0
DA:170,0
DA:172,0
DA:173,0
DA:174,0
DA:175,0
DA:176,0
DA:177,0
DA:178,0
DA:179,0
DA:180,0
DA:181,0
DA:182,0
DA:183,0
DA:184,0
DA:185,0
DA:186,0
DA:187,0
DA:188,0
DA:191,0
DA:192,0
DA:193,0
DA:194,0
DA:196,0
DA:198,0
DA:199,0
DA:200,0
DA:201,0
DA:202,0
DA:203,0
DA:204,0
DA:205,0
DA:209,0
DA:211,0
DA:213,0
DA:214,0
DA:216,0
DA:217,0
DA:218,0
DA:219,0
DA:220,0
DA:221,0
DA:222,0
DA:223,0
DA:224,0
DA:225,0
DA:226,0
DA:227,0
DA:228,0
DA:229,0
DA:230,0
DA:232,0
DA:233,0
DA:234,0
DA:235,0
DA:236,0
DA:237,0
DA:238,0
DA:239,0
DA:240,0
DA:242,0
DA:243,0
DA:244,0
DA:245,0
DA:247,0
DA:248,0
DA:249,0
DA:250,0
DA:251,0
DA:252,0
DA:255,0
DA:256,0
DA:257,0
DA:260,0
DA:262,0
DA:263,0
DA:264,0
DA:265,0
DA:266,0
DA:267,0
DA:268,0
DA:269,0
DA:270,0
DA:271,0
DA:272,0
DA:273,0
DA:274,0
DA:276,0
DA:277,0
DA:278,0
DA:279,0
DA:280,0
DA:281,0
DA:282,0
DA:283,0
DA:284,0
DA:285,0
DA:286,0
DA:291,0
DA:292,0
DA:293,0
DA:294,0
DA:295,0
DA:296,0
DA:297,0
DA:298,0
DA:300,0
DA:301,0
DA:302,0
DA:303,0
DA:304,0
DA:305,0
DA:306,0
DA:307,0
DA:309,0
DA:312,0
DA:313,0
DA:314,0
DA:315,0
DA:317,0
DA:318,0
DA:319,0
DA:320,0
DA:321,0
DA:323,0
DA:324,0
DA:325,0
DA:326,0
DA:327,0
DA:328,0
DA:329,0
DA:330,0
DA:331,0
DA:332,0
DA:333,0
DA:336,0
DA:337,0
DA:339,0
DA:340,0
DA:341,0
DA:342,0
DA:343,0
DA:346,0
DA:347,0
DA:348,0
DA:349,0
DA:350,0
DA:351,0
DA:355,0
DA:356,0
DA:357,0
DA:358,0
DA:359,0
DA:360,0
DA:361,0
DA:362,0
DA:366,0
DA:367,0
DA:368,0
DA:369,0
DA:370,0
DA:371,0
DA:373,0
DA:374,0
DA:375,0
DA:376,0
DA:377,0
DA:378,0
DA:379,0
DA:380,0
DA:381,0
DA:382,0
DA:384,0
DA:385,0
DA:386,0
DA:387,0
DA:388,0
DA:389,0
DA:390,0
DA:391,0
DA:393,0
DA:394,0
DA:395,0
DA:396,0
DA:397,0
DA:398,0
DA:399,0
DA:400,0
DA:401,0
DA:402,0
DA:404,0
DA:405,0
DA:406,0
DA:407,0
DA:408,0
DA:409,0
DA:410,0
DA:411,0
DA:412,0
DA:414,0
DA:425,0
DA:426,0
DA:427,0
DA:428,0
DA:429,0
DA:430,0
DA:432,0
DA:433,0
DA:434,0
DA:435,0
DA:436,0
DA:437,0
DA:438,0
DA:439,0
DA:440,0
DA:441,0
DA:442,0
DA:443,0
DA:444,0
DA:445,0
DA:446,0
DA:448,0
DA:449,0
DA:450,0
DA:451,0
DA:452,0
DA:453,0
DA:454,0
DA:455,0
DA:457,0
DA:458,0
DA:459,0
DA:460,0
DA:461,0
DA:462,0
DA:463,0
DA:464,0
DA:466,0
DA:467,0
DA:468,0
DA:469,0
DA:471,0
DA:473,0
DA:474,0
DA:475,0
DA:476,0
DA:479,0
DA:480,0
DA:481,0
DA:483,0
DA:484,0
DA:485,0
DA:486,0
DA:488,0
DA:489,0
DA:490,0
DA:492,0
DA:493,0
DA:494,0
DA:495,0
DA:496,0
DA:498,0
DA:499,0
DA:500,0
DA:501,0
DA:502,0
DA:504,0
DA:507,0
DA:508,0
BRF:0
BRH:0
LF:394
LH:0
end_of_record
SF:/root/autodl-tmp/zjj/p/ditto-llm/crates/ditto-core/src/config/env.rs
FN:62,_RNCNCNvNtNtCseXwexsNt0j5_10ditto_core6config3env12parse_dotenvs_00B9_
FN:30,_RNCNvMs_NtNtCseXwexsNt0j5_10ditto_core6config3envNtB6_3Env3get0Ba_
FN:61,_RNCNvNtNtCseXwexsNt0j5_10ditto_core6config3env12parse_dotenv0B7_
FN:62,_RNCNvNtNtCseXwexsNt0j5_10ditto_core6config3env12parse_dotenvs_0B7_
FN:12,_RNCNvXNtNtCseXwexsNt0j5_10ditto_core6config3envNtB4_3EnvNtNtCs7dTDQl1DYhd_4core3fmt5Debug3fmt0B8_
FN:18,_RNvMs_NtNtCseXwexsNt0j5_10ditto_core6config3envNtB4_3Env12parse_dotenv
FN:24,_RNvMs_NtNtCseXwexsNt0j5_10ditto_core6config3envNtB4_3Env3get
FN:40,_RNvNtNtCseXwexsNt0j5_10ditto_core6config3env12parse_dotenv
FN:11,_RNvXNtNtCseXwexsNt0j5_10ditto_core6config3envNtB2_3EnvNtNtCs7dTDQl1DYhd_4core3fmt5Debug3fmt
FN:35,_RNvXs0_NtNtCseXwexsNt0j5_10ditto_core6config3envNtB5_3EnvNtNtNtB9_10foundation7secrets17SecretEnvironment14get_secret_env
FNDA:0,_RNCNCNvNtNtCseXwexsNt0j5_10ditto_core6config3env12parse_dotenvs_00B9_
FNDA:0,_RNCNvMs_NtNtCseXwexsNt0j5_10ditto_core6config3envNtB6_3Env3get0Ba_
FNDA:0,_RNCNvNtNtCseXwexsNt0j5_10ditto_core6config3env12parse_dotenv0B7_
FNDA:0,_RNCNvNtNtCseXwexsNt0j5_10ditto_core6config3env12parse_dotenvs_0B7_
FNDA:0,_RNCNvXNtNtCseXwexsNt0j5_10ditto_core6config3envNtB4_3EnvNtNtCs7dTDQl1DYhd_4core3fmt5Debug3fmt0B8_
FNDA:0,_RNvMs_NtNtCseXwexsNt0j5_10ditto_core6config3envNtB4_3Env12parse_dotenv
FNDA:0,_RNvMs_NtNtCseXwexsNt0j5_10ditto_core6config3envNtB4_3Env3get
FNDA:0,_RNvNtNtCseXwexsNt0j5_10ditto_core6config3env12parse_dotenv
FNDA:0,_RNvXNtNtCseXwexsNt0j5_10ditto_core6config3envNtB2_3EnvNtNtCs7dTDQl1DYhd_4core3fmt5Debug3fmt
FNDA:0,_RNvXs0_NtNtCseXwexsNt0j5_10ditto_core6config3envNtB5_3EnvNtNtNtB9_10foundation7secrets17SecretEnvironment14get_secret_env
FNF:10
FNH:0
DA:11,0
DA:12,0
DA:13,0
DA:14,0
DA:18,0
DA:19,0
DA:20,0
DA:21,0
DA:22,0
DA:24,0
DA:25,0
DA:26,0
DA:27,0
DA:28,0
DA:29,0
DA:30,0
DA:31,0
DA:35,0
DA:36,0
DA:37,0
DA:40,0
DA:41,0
DA:43,0
DA:44,0
DA:45,0
DA:46,0
DA:47,0
DA:49,0
DA:50,0
DA:51,0
DA:53,0
DA:54,0
DA:55,0
DA:56,0
DA:58,0
DA:59,0
DA:60,0
DA:61,0
DA:62,0
DA:63,0
DA:64,0
DA:65,0
DA:67,0
DA:68,0
DA:69,0
DA:71,0
DA:74,0
DA:75,0
BRF:0
BRH:0
LF:53
LH:0
end_of_record
SF:/root/autodl-tmp/zjj/p/ditto-llm/crates/ditto-core/src/config/provider_config.rs
FN:357,_RNCNvNtNtCseXwexsNt0j5_10ditto_core6config15provider_config21merge_provider_config0B7_
FN:376,_RNCNvNtNtCseXwexsNt0j5_10ditto_core6config15provider_config21merge_provider_configs0_0B7_
FN:406,_RNCNvNtNtCseXwexsNt0j5_10ditto_core6config15provider_config21merge_provider_configs1_0B7_
FN:368,_RNCNvNtNtCseXwexsNt0j5_10ditto_core6config15provider_config21merge_provider_configs_0B7_
FN:448,_RNCNvNtNtCseXwexsNt0j5_10ditto_core6config15provider_config23filter_models_whitelist0B7_
FN:454,_RNCNvNtNtCseXwexsNt0j5_10ditto_core6config15provider_config23filter_models_whitelists0_0B7_
FN:449,_RNCNvNtNtCseXwexsNt0j5_10ditto_core6config15provider_config23filter_models_whitelists_0B7_
FN:228,_RNCNvXs_NtNtCseXwexsNt0j5_10ditto_core6config15provider_configNtB6_12ProviderAuthNtNtCs7dTDQl1DYhd_4core3fmt5Debug3fmt0Ba_
FN:51,_RNvMNtNtCseXwexsNt0j5_10ditto_core6config15provider_configNtB2_11ProviderApi11runtime_api
FN:47,_RNvMNtNtCseXwexsNt0j5_10ditto_core6config15provider_configNtB2_11ProviderApi28uses_openai_responses_client
FN:283,_RNvMs0_NtNtCseXwexsNt0j5_10ditto_core6config15provider_configNtB5_20ProviderCapabilities16openai_responses
FN:275,_RNvMs0_NtNtCseXwexsNt0j5_10ditto_core6config15provider_configNtB5_20ProviderCapabilities19catalog_default_llm
FN:264,_RNvMs0_NtNtCseXwexsNt0j5_10ditto_core6config15provider_configNtB5_20ProviderCapabilities8disabled
FN:306,_RNvMs1_NtNtCseXwexsNt0j5_10ditto_core6config15provider_configNtB5_14ProviderConfig13runtime_hints
FN:6,_RNvNtNtCseXwexsNt0j5_10ditto_core6config15provider_config12default_true
FN:431,_RNvNtNtCseXwexsNt0j5_10ditto_core6config15provider_config19select_model_config
FN:349,_RNvNtNtCseXwexsNt0j5_10ditto_core6config15provider_config21merge_provider_config
FN:416,_RNvNtNtCseXwexsNt0j5_10ditto_core6config15provider_config21normalize_string_list
FN:441,_RNvNtNtCseXwexsNt0j5_10ditto_core6config15provider_config23filter_models_whitelist
FN:155,_RNvXs_NtNtCseXwexsNt0j5_10ditto_core6config15provider_configNtB4_12ProviderAuthNtNtCs7dTDQl1DYhd_4core3fmt5Debug3fmt
FNDA:0,_RNCNvNtNtCseXwexsNt0j5_10ditto_core6config15provider_config21merge_provider_config0B7_
FNDA:0,_RNCNvNtNtCseXwexsNt0j5_10ditto_core6config15provider_config21merge_provider_configs0_0B7_
FNDA:0,_RNCNvNtNtCseXwexsNt0j5_10ditto_core6config15provider_config21merge_provider_configs1_0B7_
FNDA:0,_RNCNvNtNtCseXwexsNt0j5_10ditto_core6config15provider_config21merge_provider_configs_0B7_
FNDA:0,_RNCNvNtNtCseXwexsNt0j5_10ditto_core6config15provider_config23filter_models_whitelist0B7_
FNDA:0,_RNCNvNtNtCseXwexsNt0j5_10ditto_core6config15provider_config23filter_models_whitelists0_0B7_
FNDA:0,_RNCNvNtNtCseXwexsNt0j5_10ditto_core6config15provider_config23filter_models_whitelists_0B7_
FNDA:0,_RNCNvXs_NtNtCseXwexsNt0j5_10ditto_core6config15provider_configNtB6_12ProviderAuthNtNtCs7dTDQl1DYhd_4core3fmt5Debug3fmt0Ba_
FNDA:0,_RNvMNtNtCseXwexsNt0j5_10ditto_core6config15provider_configNtB2_11ProviderApi11runtime_api
FNDA:0,_RNvMNtNtCseXwexsNt0j5_10ditto_core6config15provider_configNtB2_11ProviderApi28uses_openai_responses_client
FNDA:0,_RNvMs0_NtNtCseXwexsNt0j5_10ditto_core6config15provider_configNtB5_20ProviderCapabilities16openai_responses
FNDA:0,_RNvMs0_NtNtCseXwexsNt0j5_10ditto_core6config15provider_configNtB5_20ProviderCapabilities19catalog_default_llm
FNDA:0,_RNvMs0_NtNtCseXwexsNt0j5_10ditto_core6config15provider_configNtB5_20ProviderCapabilities8disabled
FNDA:5,_RNvMs1_NtNtCseXwexsNt0j5_10ditto_core6config15provider_configNtB5_14ProviderConfig13runtime_hints
FNDA:0,_RNvNtNtCseXwexsNt0j5_10ditto_core6config15provider_config12default_true
FNDA:0,_RNvNtNtCseXwexsNt0j5_10ditto_core6config15provider_config19select_model_config
FNDA:0,_RNvNtNtCseXwexsNt0j5_10ditto_core6config15provider_config21merge_provider_config
FNDA:0,_RNvNtNtCseXwexsNt0j5_10ditto_core6config15provider_config21normalize_string_list
FNDA:0,_RNvNtNtCseXwexsNt0j5_10ditto_core6config15provider_config23filter_models_whitelist
FNDA:0,_RNvXs_NtNtCseXwexsNt0j5_10ditto_core6config15provider_configNtB4_12ProviderAuthNtNtCs7dTDQl1DYhd_4core3fmt5Debug3fmt
FNF:20
FNH:1
DA:6,0
DA:7,0
DA:8,0
DA:47,0
DA:48,0
DA:49,0
DA:51,0
DA:52,0
DA:53,0
DA:54,0
DA:55,0
DA:56,0
DA:58,0
DA:155,0
DA:156,0
DA:157,0
DA:158,0
DA:160,0
DA:161,0
DA:164,0
DA:165,0
DA:166,0
DA:167,0
DA:168,0
DA:169,0
DA:170,0
DA:171,0
DA:172,0
DA:174,0
DA:175,0
DA:176,0
DA:177,0
DA:178,0
DA:179,0
DA:180,0
DA:181,0
DA:182,0
DA:184,0
DA:185,0
DA:186,0
DA:187,0
DA:188,0
DA:189,0
DA:190,0
DA:191,0
DA:192,0
DA:194,0
DA:195,0
DA:196,0
DA:197,0
DA:198,0
DA:199,0
DA:200,0
DA:201,0
DA:202,0
DA:204,0
DA:205,0
DA:206,0
DA:207,0
DA:208,0
DA:209,0
DA:210,0
DA:211,0
DA:212,0
DA:213,0
DA:214,0
DA:215,0
DA:216,0
DA:218,0
DA:219,0
DA:220,0
DA:221,0
DA:222,0
DA:223,0
DA:224,0
DA:225,0
DA:227,0
DA:228,0
DA:229,0
DA:230,0
DA:231,0
DA:232,0
DA:233,0
DA:234,0
DA:236,0
DA:237,0
DA:238,0
DA:239,0
DA:240,0
DA:241,0
DA:244,0
DA:264,0
DA:265,0
DA:266,0
DA:267,0
DA:268,0
DA:269,0
DA:270,0
DA:271,0
DA:272,0
DA:273,0
DA:275,0
DA:276,0
DA:277,0
DA:278,0
DA:279,0
DA:280,0
DA:281,0
DA:283,0
DA:284,0
DA:285,0
DA:286,0
DA:287,0
DA:288,0
DA:289,0
DA:290,0
DA:291,0
DA:292,0
DA:306,5
DA:307,5
DA:308,5
DA:309,5
DA:310,5
DA:311,5
DA:312,5
DA:313,5
DA:314,5
DA:315,5
DA:316,5
DA:349,0
DA:350,0
DA:351,0
DA:352,0
DA:353,0
DA:354,0
DA:355,0
DA:356,0
DA:357,0
DA:358,0
DA:359,0
DA:360,0
DA:361,0
DA:362,0
DA:363,0
DA:364,0
DA:365,0
DA:366,0
DA:367,0
DA:368,0
DA:369,0
DA:370,0
DA:371,0
DA:372,0
DA:373,0
DA:374,0
DA:375,0
DA:376,0
DA:377,0
DA:378,0
DA:379,0
DA:380,0
DA:381,0
DA:382,0
DA:383,0
DA:384,0
DA:385,0
DA:386,0
DA:387,0
DA:388,0
DA:389,0
DA:390,0
DA:391,0
DA:392,0
DA:393,0
DA:394,0
DA:395,0
DA:396,0
DA:397,0
DA:398,0
DA:399,0
DA:400,0
DA:401,0
DA:402,0
DA:403,0
DA:404,0
DA:405,0
DA:406,0
DA:407,0
DA:408,0
DA:409,0
DA:410,0
DA:411,0
DA:412,0
DA:413,0
DA:414,0
DA:416,0
DA:417,0
DA:418,0
DA:419,0
DA:420,0
DA:421,0
DA:422,0
DA:423,0
DA:424,0
DA:425,0
DA:426,0
DA:428,0
DA:429,0
DA:431,0
DA:432,0
DA:433,0
DA:434,0
DA:435,0
DA:436,0
DA:437,0
DA:438,0
DA:439,0
DA:441,0
DA:442,0
DA:443,0
DA:444,0
DA:446,0
DA:447,0
DA:448,0
DA:449,0
DA:450,0
DA:452,0
DA:453,0
DA:454,0
DA:455,0
DA:456,0
BRF:0
BRH:0
LF:239
LH:11
end_of_record
SF:/root/autodl-tmp/zjj/p/ditto-llm/crates/ditto-core/src/config/routing_policy.rs
FN:588,_RNCNCNvNtNtCseXwexsNt0j5_10ditto_core6config14routing_policy24find_policy_for_selector00B9_
FN:320,_RNCNvMs_NtNtCseXwexsNt0j5_10ditto_core6config14routing_policyNtB6_21ProviderRoutingConfig12resolve_plan0Ba_
FN:203,_RNCNvMs_NtNtCseXwexsNt0j5_10ditto_core6config14routing_policyNtB6_21ProviderRoutingConfig13from_json_str0Ba_
FN:214,_RNCNvMs_NtNtCseXwexsNt0j5_10ditto_core6config14routing_policyNtB6_21ProviderRoutingConfig13from_str_auto0Ba_
FN:207,_RNCNvMs_NtNtCseXwexsNt0j5_10ditto_core6config14routing_policyNtB6_21ProviderRoutingConfig13from_toml_str0Ba_
FN:376,_RNCNvMs_NtNtCseXwexsNt0j5_10ditto_core6config14routing_policyNtB6_21ProviderRoutingConfig21resolve_stage_targets0Ba_
FN:377,_RNCNvMs_NtNtCseXwexsNt0j5_10ditto_core6config14routing_policyNtB6_21ProviderRoutingConfig21resolve_stage_targetss_0Ba_
FN:346,_RNCNvMs_NtNtCseXwexsNt0j5_10ditto_core6config14routing_policyNtB6_21ProviderRoutingConfig22resolve_primary_target0Ba_
FN:570,_RNCNvNtNtCseXwexsNt0j5_10ditto_core6config14routing_policy12find_profile0B7_
FN:578,_RNCNvNtNtCseXwexsNt0j5_10ditto_core6config14routing_policy12find_profiles0_0B7_
FN:577,_RNCNvNtNtCseXwexsNt0j5_10ditto_core6config14routing_policy12find_profiles_0B7_
FN:655,_RNCNvNtNtCseXwexsNt0j5_10ditto_core6config14routing_policy16clean_opt_string0B7_
FN:606,_RNCNvNtNtCseXwexsNt0j5_10ditto_core6config14routing_policy23select_weighted_targets0B7_
FN:586,_RNCNvNtNtCseXwexsNt0j5_10ditto_core6config14routing_policy24find_policy_for_selector0B7_
FN:596,_RNCNvNtNtCseXwexsNt0j5_10ditto_core6config14routing_policy24find_policy_for_selectors0_0B7_
FN:595,_RNCNvNtNtCseXwexsNt0j5_10ditto_core6config14routing_policy24find_policy_for_selectors_0B7_
FN:554,_RNCNvNtNtCseXwexsNt0j5_10ditto_core6config14routing_policy33validate_runtime_route_for_target0B7_
FN:706,_RNvMs1_NtNtCseXwexsNt0j5_10ditto_core6config14routing_policyNtB5_14SelectedPolicy5stage
FN:306,_RNvMs_NtNtCseXwexsNt0j5_10ditto_core6config14routing_policyNtB4_21ProviderRoutingConfig12resolve_plan
FN:202,_RNvMs_NtNtCseXwexsNt0j5_10ditto_core6config14routing_policyNtB4_21ProviderRoutingConfig13from_json_str
FN:210,_RNvMs_NtNtCseXwexsNt0j5_10ditto_core6config14routing_policyNtB4_21ProviderRoutingConfig13from_str_auto
FN:206,_RNvMs_NtNtCseXwexsNt0j5_10ditto_core6config14routing_policyNtB4_21ProviderRoutingConfig13from_toml_str
FN:413,_RNvMs_NtNtCseXwexsNt0j5_10ditto_core6config14routing_policyNtB4_21ProviderRoutingConfig13select_policy
FN:236,_RNvMs_NtNtCseXwexsNt0j5_10ditto_core6config14routing_policyNtB4_21ProviderRoutingConfig20from_str_with_format
FN:351,_RNvMs_NtNtCseXwexsNt0j5_10ditto_core6config14routing_policyNtB4_21ProviderRoutingConfig21resolve_stage_targets
FN:449,_RNvMs_NtNtCseXwexsNt0j5_10ditto_core6config14routing_policyNtB4_21ProviderRoutingConfig22best_matching_override
FN:341,_RNvMs_NtNtCseXwexsNt0j5_10ditto_core6config14routing_policyNtB4_21ProviderRoutingConfig22resolve_primary_target
FN:247,_RNvMs_NtNtCseXwexsNt0j5_10ditto_core6config14routing_policyNtB4_21ProviderRoutingConfig8validate
FN:564,_RNvNtNtCseXwexsNt0j5_10ditto_core6config14routing_policy12find_profile
FN:676,_RNvNtNtCseXwexsNt0j5_10ditto_core6config14routing_policy12hash64_fnv1a
FN:672,_RNvNtNtCseXwexsNt0j5_10ditto_core6config14routing_policy12weight_valid
FN:44,_RNvNtNtCseXwexsNt0j5_10ditto_core6config14routing_policy14default_weight
FN:491,_RNvNtNtCseXwexsNt0j5_10ditto_core6config14routing_policy14validate_stage
FN:475,_RNvNtNtCseXwexsNt0j5_10ditto_core6config14routing_policy15validate_policy
FN:652,_RNvNtNtCseXwexsNt0j5_10ditto_core6config14routing_policy16clean_opt_string
FN:659,_RNvNtNtCseXwexsNt0j5_10ditto_core6config14routing_policy16selector_matches
FN:648,_RNvNtNtCseXwexsNt0j5_10ditto_core6config14routing_policy18routing_target_key
FN:599,_RNvNtNtCseXwexsNt0j5_10ditto_core6config14routing_policy23select_weighted_targets
FN:581,_RNvNtNtCseXwexsNt0j5_10ditto_core6config14routing_policy24find_policy_for_selector
FN:60,_RNvNtNtCseXwexsNt0j5_10ditto_core6config14routing_policy25routing_phase_requirement
FN:526,_RNvNtNtCseXwexsNt0j5_10ditto_core6config14routing_policy33validate_runtime_route_for_target
FN:102,_RNvXNtNtCseXwexsNt0j5_10ditto_core6config14routing_policyNtB2_22RoutingProviderProfileNtNtCs7dTDQl1DYhd_4core7default7Default7default
FN:688,_RNvXs0_NtNtCseXwexsNt0j5_10ditto_core6config14routing_policyNtB5_19RoutingPolicySourceNtNtCs7dTDQl1DYhd_4core3fmt7Display3fmt
FN:219,_RINvMs_NtNtCseXwexsNt0j5_10ditto_core6config14routing_policyNtB5_21ProviderRoutingConfig9from_pathpEB9_
FN:222,_RNCINvMs_NtNtCseXwexsNt0j5_10ditto_core6config14routing_policyNtB7_21ProviderRoutingConfig9from_pathpE0Bb_
FN:226,_RNCINvMs_NtNtCseXwexsNt0j5_10ditto_core6config14routing_policyNtB7_21ProviderRoutingConfig9from_pathpEs0_0Bb_
FN:225,_RNCINvMs_NtNtCseXwexsNt0j5_10ditto_core6config14routing_policyNtB7_21ProviderRoutingConfig9from_pathpEs_0Bb_
FNDA:0,_RNCNCNvNtNtCseXwexsNt0j5_10ditto_core6config14routing_policy24find_policy_for_selector00B9_
FNDA:0,_RNCNvMs_NtNtCseXwexsNt0j5_10ditto_core6config14routing_policyNtB6_21ProviderRoutingConfig12resolve_plan0Ba_
FNDA:0,_RNCNvMs_NtNtCseXwexsNt0j5_10ditto_core6config14routing_policyNtB6_21ProviderRoutingConfig13from_json_str0Ba_
FNDA:0,_RNCNvMs_NtNtCseXwexsNt0j5_10ditto_core6config14routing_policyNtB6_21ProviderRoutingConfig13from_str_auto0Ba_
FNDA:0,_RNCNvMs_NtNtCseXwexsNt0j5_10ditto_core6config14routing_policyNtB6_21ProviderRoutingConfig13from_toml_str0Ba_
FNDA:0,_RNCNvMs_NtNtCseXwexsNt0j5_10ditto_core6config14routing_policyNtB6_21ProviderRoutingConfig21resolve_stage_targets0Ba_
FNDA:0,_RNCNvMs_NtNtCseXwexsNt0j5_10ditto_core6config14routing_policyNtB6_21ProviderRoutingConfig21resolve_stage_targetss_0Ba_
FNDA:0,_RNCNvMs_NtNtCseXwexsNt0j5_10ditto_core6config14routing_policyNtB6_21ProviderRoutingConfig22resolve_primary_target0Ba_
FNDA:0,_RNCNvNtNtCseXwexsNt0j5_10ditto_core6config14routing_policy12find_profile0B7_
FNDA:0,_RNCNvNtNtCseXwexsNt0j5_10ditto_core6config14routing_policy12find_profiles0_0B7_
FNDA:0,_RNCNvNtNtCseXwexsNt0j5_10ditto_core6config14routing_policy12find_profiles_0B7_
FNDA:0,_RNCNvNtNtCseXwexsNt0j5_10ditto_core6config14routing_policy16clean_opt_string0B7_
FNDA:0,_RNCNvNtNtCseXwexsNt0j5_10ditto_core6config14routing_policy23select_weighted_targets0B7_
FNDA:0,_RNCNvNtNtCseXwexsNt0j5_10ditto_core6config14routing_policy24find_policy_for_selector0B7_
FNDA:0,_RNCNvNtNtCseXwexsNt0j5_10ditto_core6config14routing_policy24find_policy_for_selectors0_0B7_
FNDA:0,_RNCNvNtNtCseXwexsNt0j5_10ditto_core6config14routing_policy24find_policy_for_selectors_0B7_
FNDA:0,_RNCNvNtNtCseXwexsNt0j5_10ditto_core6config14routing_policy33validate_runtime_route_for_target0B7_
FNDA:0,_RNvMs1_NtNtCseXwexsNt0j5_10ditto_core6config14routing_policyNtB5_14SelectedPolicy5stage
FNDA:0,_RNvMs_NtNtCseXwexsNt0j5_10ditto_core6config14routing_policyNtB4_21ProviderRoutingConfig12resolve_plan
FNDA:0,_RNvMs_NtNtCseXwexsNt0j5_10ditto_core6config14routing_policyNtB4_21ProviderRoutingConfig13from_json_str
FNDA:0,_RNvMs_NtNtCseXwexsNt0j5_10ditto_core6config14routing_policyNtB4_21ProviderRoutingConfig13from_str_auto
FNDA:0,_RNvMs_NtNtCseXwexsNt0j5_10ditto_core6config14routing_policyNtB4_21ProviderRoutingConfig13from_toml_str
FNDA:0,_RNvMs_NtNtCseXwexsNt0j5_10ditto_core6config14routing_policyNtB4_21ProviderRoutingConfig13select_policy
FNDA:0,_RNvMs_NtNtCseXwexsNt0j5_10ditto_core6config14routing_policyNtB4_21ProviderRoutingConfig20from_str_with_format
FNDA:0,_RNvMs_NtNtCseXwexsNt0j5_10ditto_core6config14routing_policyNtB4_21ProviderRoutingConfig21resolve_stage_targets
FNDA:0,_RNvMs_NtNtCseXwexsNt0j5_10ditto_core6config14routing_policyNtB4_21ProviderRoutingConfig22best_matching_override
FNDA:0,_RNvMs_NtNtCseXwexsNt0j5_10ditto_core6config14routing_policyNtB4_21ProviderRoutingConfig22resolve_primary_target
FNDA:0,_RNvMs_NtNtCseXwexsNt0j5_10ditto_core6config14routing_policyNtB4_21ProviderRoutingConfig8validate
FNDA:0,_RNvNtNtCseXwexsNt0j5_10ditto_core6config14routing_policy12find_profile
FNDA:0,_RNvNtNtCseXwexsNt0j5_10ditto_core6config14routing_policy12hash64_fnv1a
FNDA:0,_RNvNtNtCseXwexsNt0j5_10ditto_core6config14routing_policy12weight_valid
FNDA:0,_RNvNtNtCseXwexsNt0j5_10ditto_core6config14routing_policy14default_weight
FNDA:0,_RNvNtNtCseXwexsNt0j5_10ditto_core6config14routing_policy14validate_stage
FNDA:0,_RNvNtNtCseXwexsNt0j5_10ditto_core6config14routing_policy15validate_policy
FNDA:0,_RNvNtNtCseXwexsNt0j5_10ditto_core6config14routing_policy16clean_opt_string
FNDA:0,_RNvNtNtCseXwexsNt0j5_10ditto_core6config14routing_policy16selector_matches
FNDA:0,_RNvNtNtCseXwexsNt0j5_10ditto_core6config14routing_policy18routing_target_key
FNDA:0,_RNvNtNtCseXwexsNt0j5_10ditto_core6config14routing_policy23select_weighted_targets
FNDA:0,_RNvNtNtCseXwexsNt0j5_10ditto_core6config14routing_policy24find_policy_for_selector
FNDA:0,_RNvNtNtCseXwexsNt0j5_10ditto_core6config14routing_policy25routing_phase_requirement
FNDA:0,_RNvNtNtCseXwexsNt0j5_10ditto_core6config14routing_policy33validate_runtime_route_for_target
FNDA:0,_RNvXNtNtCseXwexsNt0j5_10ditto_core6config14routing_policyNtB2_22RoutingProviderProfileNtNtCs7dTDQl1DYhd_4core7default7Default7default
FNDA:0,_RNvXs0_NtNtCseXwexsNt0j5_10ditto_core6config14routing_policyNtB5_19RoutingPolicySourceNtNtCs7dTDQl1DYhd_4core3fmt7Display3fmt
FNDA:0,_RINvMs_NtNtCseXwexsNt0j5_10ditto_core6config14routing_policyNtB5_21ProviderRoutingConfig9from_pathpEB9_
FNDA:0,_RNCINvMs_NtNtCseXwexsNt0j5_10ditto_core6config14routing_policyNtB7_21ProviderRoutingConfig9from_pathpE0Bb_
FNDA:0,_RNCINvMs_NtNtCseXwexsNt0j5_10ditto_core6config14routing_policyNtB7_21ProviderRoutingConfig9from_pathpEs0_0Bb_
FNDA:0,_RNCINvMs_NtNtCseXwexsNt0j5_10ditto_core6config14routing_policyNtB7_21ProviderRoutingConfig9from_pathpEs_0Bb_
FNF:47
FNH:0
DA:44,0
DA:45,0
DA:46,0
DA:60,0
DA:61,0
DA:62,0
DA:63,0
DA:64,0
DA:65,0
DA:67,0
DA:102,0
DA:103,0
DA:104,0
DA:105,0
DA:106,0
DA:107,0
DA:108,0
DA:202,0
DA:203,0
DA:204,0
DA:206,0
DA:207,0
DA:208,0
DA:210,0
DA:211,0
DA:212,0
DA:213,0
DA:214,0
DA:217,0
DA:219,0
DA:220,0
DA:221,0
DA:222,0
DA:223,0
DA:224,0
DA:225,0
DA:226,0
DA:227,0
DA:229,0
DA:230,0
DA:231,0
DA:233,0
DA:234,0
DA:236,0
DA:237,0
DA:238,0
DA:239,0
DA:240,0
DA:241,0
DA:242,0
DA:243,0
DA:245,0
DA:247,0
DA:248,0
DA:249,0
DA:250,0
DA:251,0
DA:252,0
DA:253,0
DA:254,0
DA:255,0
DA:256,0
DA:257,0
DA:258,0
DA:259,0
DA:260,0
DA:261,0
DA:262,0
DA:265,0
DA:266,0
DA:267,0
DA:268,0
DA:269,0
DA:270,0
DA:271,0
DA:273,0
DA:274,0
DA:275,0
DA:276,0
DA:277,0
DA:278,0
DA:279,0
DA:280,0
DA:281,0
DA:282,0
DA:284,0
DA:285,0
DA:286,0
DA:288,0
DA:289,0
DA:290,0
DA:291,0
DA:292,0
DA:293,0
DA:294,0
DA:295,0
DA:296,0
DA:297,0
DA:298,0
DA:299,0
DA:300,0
DA:303,0
DA:304,0
DA:306,0
DA:307,0
DA:309,0
DA:310,0
DA:311,0
DA:312,0
DA:313,0
DA:314,0
DA:316,0
DA:318,0
DA:319,0
DA:320,0
DA:322,0
DA:323,0
DA:324,0
DA:325,0
DA:326,0
DA:329,0
DA:330,0
DA:331,0
DA:332,0
DA:334,0
DA:336,0
DA:337,0
DA:339,0
DA:341,0
DA:342,0
DA:343,0
DA:344,0
DA:345,0
DA:346,0
DA:347,0
DA:348,0
DA:349,0
DA:351,0
DA:352,0
DA:353,0
DA:354,0
DA:355,0
DA:356,0
DA:357,0
DA:358,0
DA:359,0
DA:361,0
DA:362,0
DA:363,0
DA:364,0
DA:365,0
DA:366,0
DA:367,0
DA:368,0
DA:369,0
DA:370,0
DA:372,0
DA:373,0
DA:375,0
DA:376,0
DA:377,0
DA:378,0
DA:381,0
DA:382,0
DA:384,0
DA:385,0
DA:386,0
DA:387,0
DA:388,0
DA:389,0
DA:391,0
DA:392,0
DA:393,0
DA:394,0
DA:395,0
DA:396,0
DA:397,0
DA:398,0
DA:400,0
DA:401,0
DA:402,0
DA:403,0
DA:404,0
DA:405,0
DA:406,0
DA:407,0
DA:410,0
DA:411,0
DA:413,0
DA:414,0
DA:415,0
DA:416,0
DA:417,0
DA:418,0
DA:419,0
DA:420,0
DA:421,0
DA:423,0
DA:424,0
DA:425,0
DA:426,0
DA:427,0
DA:428,0
DA:429,0
DA:430,0
DA:432,0
DA:433,0
DA:434,0
DA:435,0
DA:436,0
DA:437,0
DA:438,0
DA:439,0
DA:441,0
DA:442,0
DA:443,0
DA:444,0
DA:445,0
DA:446,0
DA:447,0
DA:449,0
DA:450,0
DA:451,0
DA:452,0
DA:453,0
DA:454,0
DA:455,0
DA:456,0
DA:457,0
DA:458,0
DA:459,0
DA:460,0
DA:461,0
DA:462,0
DA:463,0
DA:464,0
DA:465,0
DA:466,0
DA:467,0
DA:468,0
DA:471,0
DA:472,0
DA:475,0
DA:476,0
DA:477,0
DA:478,0
DA:479,0
DA:480,0
DA:481,0
DA:482,0
DA:483,0
DA:484,0
DA:485,0
DA:486,0
DA:487,0
DA:488,0
DA:489,0
DA:491,0
DA:492,0
DA:493,0
DA:494,0
DA:495,0
DA:496,0
DA:497,0
DA:498,0
DA:499,0
DA:500,0
DA:501,0
DA:502,0
DA:503,0
DA:504,0
DA:505,0
DA:506,0
DA:507,0
DA:508,0
DA:509,0
DA:510,0
DA:511,0
DA:512,0
DA:513,0
DA:514,0
DA:515,0
DA:516,0
DA:517,0
DA:518,0
DA:519,0
DA:520,0
DA:521,0
DA:523,0
DA:524,0
DA:526,0
DA:527,0
DA:528,0
DA:529,0
DA:530,0
DA:531,0
DA:532,0
DA:533,0
DA:534,0
DA:535,0
DA:537,0
DA:538,0
DA:539,0
DA:540,0
DA:541,0
DA:542,0
DA:543,0
DA:544,0
DA:545,0
DA:546,0
DA:547,0
DA:551,0
DA:552,0
DA:553,0
DA:554,0
DA:555,0
DA:556,0
DA:557,0
DA:558,0
DA:559,0
DA:560,0
DA:561,0
DA:562,0
DA:564,0
DA:565,0
DA:566,0
DA:567,0
DA:568,0
DA:569,0
DA:570,0
DA:572,0
DA:573,0
DA:574,0
DA:575,0
DA:576,0
DA:577,0
DA:578,0
DA:579,0
DA:581,0
DA:582,0
DA:583,0
DA:584,0
DA:585,0
DA:586,0
DA:587,0
DA:588,0
DA:589,0
DA:590,0
DA:591,0
DA:592,0
DA:593,0
DA:594,0
DA:595,0
DA:596,0
DA:597,0
DA:599,0
DA:600,0
DA:601,0
DA:602,0
DA:603,0
DA:604,0
DA:605,0
DA:606,0
DA:607,0
DA:608,0
DA:609,0
DA:610,0
DA:612,0
DA:613,0
DA:614,0
DA:616,0
DA:617,0
DA:618,0
DA:619,0
DA:621,0
DA:622,0
DA:623,0
DA:624,0
DA:625,0
DA:626,0
DA:627,0
DA:628,0
DA:629,0
DA:632,0
DA:633,0
DA:635,0
DA:636,0
DA:637,0
DA:639,0
DA:640,0
DA:641,0
DA:642,0
DA:643,0
DA:645,0
DA:646,0
DA:648,0
DA:649,0
DA:650,0
DA:652,0
DA:653,0
DA:654,0
DA:655,0
DA:656,0
DA:657,0
DA:659,0
DA:660,0
DA:661,0
DA:663,0
DA:664,0
DA:665,0
DA:666,0
DA:667,0
DA:669,0
DA:670,0
DA:672,0
DA:673,0
DA:674,0
DA:676,0
DA:679,0
DA:680,0
DA:681,0
DA:682,0
DA:683,0
DA:684,0
DA:685,0
DA:688,0
DA:689,0
DA:690,0
DA:691,0
DA:692,0
DA:693,0
DA:695,0
DA:706,0
DA:707,0
DA:708,0
DA:709,0
DA:711,0
BRF:0
BRH:0
LF:458
LH:0
end_of_record
SF:/root/autodl-tmp/zjj/p/ditto-llm/crates/ditto-core/src/contracts/endpoint.rs
FN:58,_RNCNvMs0_NtNtCseXwexsNt0j5_10ditto_core9contracts8endpointNtB7_16EndpointTemplate6render0Bb_
FN:63,_RNCNvMs0_NtNtCseXwexsNt0j5_10ditto_core9contracts8endpointNtB7_16EndpointTemplate6renders_0Bb_
FN:52,_RNvMs0_NtNtCseXwexsNt0j5_10ditto_core9contracts8endpointNtB5_16EndpointTemplate6render
FN:83,_RNvNtNtCseXwexsNt0j5_10ditto_core9contracts8endpoint15render_template
FN:37,_RNvXs_NtNtCseXwexsNt0j5_10ditto_core9contracts8endpointNtB4_14ProtocolQuirksNtNtCs7dTDQl1DYhd_4core7default7Default7default
FNDA:0,_RNCNvMs0_NtNtCseXwexsNt0j5_10ditto_core9contracts8endpointNtB7_16EndpointTemplate6render0Bb_
FNDA:0,_RNCNvMs0_NtNtCseXwexsNt0j5_10ditto_core9contracts8endpointNtB7_16EndpointTemplate6renders_0Bb_
FNDA:4,_RNvMs0_NtNtCseXwexsNt0j5_10ditto_core9contracts8endpointNtB5_16EndpointTemplate6render
FNDA:4,_RNvNtNtCseXwexsNt0j5_10ditto_core9contracts8endpoint15render_template
FNDA:0,_RNvXs_NtNtCseXwexsNt0j5_10ditto_core9contracts8endpointNtB4_14ProtocolQuirksNtNtCs7dTDQl1DYhd_4core7default7Default7default
FNF:5
FNH:2
DA:37,0
DA:38,0
DA:39,0
DA:52,4
DA:54,4
DA:55,4
DA:56,4
DA:57,4
DA:58,4
DA:59,4
DA:60,4
DA:61,4
DA:62,4
DA:63,4
DA:64,0
DA:65,0
DA:66,0
DA:67,0
DA:68,0
DA:69,4
DA:71,4
DA:83,4
DA:84,4
DA:85,4
BRF:0
BRH:0
LF:26
LH:16
end_of_record
SF:/root/autodl-tmp/zjj/p/ditto-llm/crates/ditto-core/src/contracts/ids.rs
FN:124,_RNvMs2_NtNtCseXwexsNt0j5_10ditto_core9contracts3idsNtB5_10ProviderId3new
FN:128,_RNvMs2_NtNtCseXwexsNt0j5_10ditto_core9contracts3idsNtB5_10ProviderId6as_str
FN:157,_RNvMs5_NtNtCseXwexsNt0j5_10ditto_core9contracts3idsNtB5_14CapabilityKind18parse_config_token
FN:149,_RNvMs5_NtNtCseXwexsNt0j5_10ditto_core9contracts3idsNtB5_14CapabilityKind3new
FN:153,_RNvMs5_NtNtCseXwexsNt0j5_10ditto_core9contracts3idsNtB5_14CapabilityKind6as_str
FN:9,_RNvMs7_NtNtCseXwexsNt0j5_10ditto_core9contracts3idsNtB5_13OperationKind3new
FN:13,_RNvMs7_NtNtCseXwexsNt0j5_10ditto_core9contracts3idsNtB5_13OperationKind6as_str
FN:9,_RNvMsH_NtNtCseXwexsNt0j5_10ditto_core9contracts3idsNtB5_18ContextCacheModeId3new
FN:13,_RNvMsH_NtNtCseXwexsNt0j5_10ditto_core9contracts3idsNtB5_18ContextCacheModeId6as_str
FN:9,_RNvMsj_NtNtCseXwexsNt0j5_10ditto_core9contracts3idsNtB5_12ApiSurfaceId3new
FN:13,_RNvMsj_NtNtCseXwexsNt0j5_10ditto_core9contracts3idsNtB5_12ApiSurfaceId6as_str
FN:9,_RNvMsv_NtNtCseXwexsNt0j5_10ditto_core9contracts3idsNtB5_12WireProtocol3new
FN:13,_RNvMsv_NtNtCseXwexsNt0j5_10ditto_core9contracts3idsNtB5_12WireProtocol6as_str
FN:233,_RNvNtNtCseXwexsNt0j5_10ditto_core9contracts3ids24capability_for_operation
FN:291,_RNvNtNtCseXwexsNt0j5_10ditto_core9contracts3ids36invocation_operations_for_capability
FN:134,_RNvXs3_NtNtCseXwexsNt0j5_10ditto_core9contracts3idsNtB5_10ProviderIdNtNtCs7dTDQl1DYhd_4core3fmt7Display3fmt
FN:140,_RNvXs4_NtNtCseXwexsNt0j5_10ditto_core9contracts3idsNtB5_10ProviderIdINtNtCs7dTDQl1DYhd_4core7convert4FromReE4from
FN:228,_RNvXs6_NtNtCseXwexsNt0j5_10ditto_core9contracts3idsNtB5_14CapabilityKindNtNtCs7dTDQl1DYhd_4core3fmt7Display3fmt
FN:19,_RNvXs8_NtNtCseXwexsNt0j5_10ditto_core9contracts3idsNtB5_13OperationKindNtNtCs7dTDQl1DYhd_4core3fmt7Display3fmt
FN:19,_RNvXsI_NtNtCseXwexsNt0j5_10ditto_core9contracts3idsNtB5_18ContextCacheModeIdNtNtCs7dTDQl1DYhd_4core3fmt7Display3fmt
FN:19,_RNvXsk_NtNtCseXwexsNt0j5_10ditto_core9contracts3idsNtB5_12ApiSurfaceIdNtNtCs7dTDQl1DYhd_4core3fmt7Display3fmt
FN:19,_RNvXsw_NtNtCseXwexsNt0j5_10ditto_core9contracts3idsNtB5_12WireProtocolNtNtCs7dTDQl1DYhd_4core3fmt7Display3fmt
FNDA:39,_RNvMs2_NtNtCseXwexsNt0j5_10ditto_core9contracts3idsNtB5_10ProviderId3new
FNDA:34,_RNvMs2_NtNtCseXwexsNt0j5_10ditto_core9contracts3idsNtB5_10ProviderId6as_str
FNDA:0,_RNvMs5_NtNtCseXwexsNt0j5_10ditto_core9contracts3idsNtB5_14CapabilityKind18parse_config_token
FNDA:0,_RNvMs5_NtNtCseXwexsNt0j5_10ditto_core9contracts3idsNtB5_14CapabilityKind3new
FNDA:11,_RNvMs5_NtNtCseXwexsNt0j5_10ditto_core9contracts3idsNtB5_14CapabilityKind6as_str
FNDA:0,_RNvMs7_NtNtCseXwexsNt0j5_10ditto_core9contracts3idsNtB5_13OperationKind3new
FNDA:4,_RNvMs7_NtNtCseXwexsNt0j5_10ditto_core9contracts3idsNtB5_13OperationKind6as_str
FNDA:0,_RNvMsH_NtNtCseXwexsNt0j5_10ditto_core9contracts3idsNtB5_18ContextCacheModeId3new
FNDA:0,_RNvMsH_NtNtCseXwexsNt0j5_10ditto_core9contracts3idsNtB5_18ContextCacheModeId6as_str
FNDA:0,_RNvMsj_NtNtCseXwexsNt0j5_10ditto_core9contracts3idsNtB5_12ApiSurfaceId3new
FNDA:2,_RNvMsj_NtNtCseXwexsNt0j5_10ditto_core9contracts3idsNtB5_12ApiSurfaceId6as_str
FNDA:0,_RNvMsv_NtNtCseXwexsNt0j5_10ditto_core9contracts3idsNtB5_12WireProtocol3new
FNDA:9,_RNvMsv_NtNtCseXwexsNt0j5_10ditto_core9contracts3idsNtB5_12WireProtocol6as_str
FNDA:17,_RNvNtNtCseXwexsNt0j5_10ditto_core9contracts3ids24capability_for_operation
FNDA:0,_RNvNtNtCseXwexsNt0j5_10ditto_core9contracts3ids36invocation_operations_for_capability
FNDA:0,_RNvXs3_NtNtCseXwexsNt0j5_10ditto_core9contracts3idsNtB5_10ProviderIdNtNtCs7dTDQl1DYhd_4core3fmt7Display3fmt
FNDA:0,_RNvXs4_NtNtCseXwexsNt0j5_10ditto_core9contracts3idsNtB5_10ProviderIdINtNtCs7dTDQl1DYhd_4core7convert4FromReE4from
FNDA:1,_RNvXs6_NtNtCseXwexsNt0j5_10ditto_core9contracts3idsNtB5_14CapabilityKindNtNtCs7dTDQl1DYhd_4core3fmt7Display3fmt
FNDA:0,_RNvXs8_NtNtCseXwexsNt0j5_10ditto_core9contracts3idsNtB5_13OperationKindNtNtCs7dTDQl1DYhd_4core3fmt7Display3fmt
FNDA:0,_RNvXsI_NtNtCseXwexsNt0j5_10ditto_core9contracts3idsNtB5_18ContextCacheModeIdNtNtCs7dTDQl1DYhd_4core3fmt7Display3fmt
FNDA:0,_RNvXsk_NtNtCseXwexsNt0j5_10ditto_core9contracts3idsNtB5_12ApiSurfaceIdNtNtCs7dTDQl1DYhd_4core3fmt7Display3fmt
FNDA:0,_RNvXsw_NtNtCseXwexsNt0j5_10ditto_core9contracts3idsNtB5_12WireProtocolNtNtCs7dTDQl1DYhd_4core3fmt7Display3fmt
FNF:13
FNH:6
DA:9,0
DA:10,0
DA:11,0
DA:13,15
DA:14,15
DA:15,15
DA:19,0
DA:20,0
DA:21,0
DA:124,39
DA:125,39
DA:126,39
DA:128,34
DA:129,34
DA:130,34
DA:134,0
DA:135,0
DA:136,0
DA:140,0
DA:141,0
DA:142,0
DA:149,0
DA:150,0
DA:151,0
DA:153,11
DA:154,11
DA:155,11
DA:157,0
DA:158,0
DA:159,0
DA:160,0
DA:161,0
DA:162,0
DA:164,0
DA:165,0
DA:166,0
DA:168,0
DA:169,0
DA:170,0
DA:172,0
DA:173,0
DA:174,0
DA:176,0
DA:177,0
DA:179,0
DA:180,0
DA:182,0
DA:183,0
DA:185,0
DA:186,0
DA:187,0
DA:188,0
DA:190,0
DA:191,0
DA:192,0
DA:193,0
DA:194,0
DA:195,0
DA:196,0
DA:198,0
DA:199,0
DA:201,0
DA:228,1
DA:229,1
DA:230,1
DA:233,17
DA:234,17
DA:235,17
DA:236,0
DA:237,0
DA:238,0
DA:239,0
DA:240,0
DA:241,17
DA:242,0
DA:243,0
DA:245,0
DA:246,0
DA:247,0
DA:248,0
DA:249,0
DA:250,0
DA:251,0
DA:252,0
DA:253,0
DA:254,0
DA:255,0
DA:256,0
DA:257,0
DA:258,0
DA:259,0
DA:260,0
DA:261,0
DA:262,0
DA:263,0
DA:264,0
DA:266,17
DA:291,0
DA:292,0
DA:293,0
DA:294,0
DA:295,0
DA:296,0
DA:297,0
DA:298,0
DA:299,0
DA:300,0
DA:301,0
DA:302,0
DA:303,0
DA:304,0
DA:305,0
DA:306,0
DA:307,0
DA:308,0
DA:309,0
DA:310,0
DA:311,0
DA:312,0
DA:313,0
DA:314,0
DA:315,0
DA:317,0
DA:319,0
BRF:0
BRH:0
LF:124
LH:20
end_of_record
SF:/root/autodl-tmp/zjj/p/ditto-llm/crates/ditto-core/src/contracts/llm.rs
FN:199,_RNvMs0_NtNtCseXwexsNt0j5_10ditto_core9contracts3llmNtB5_16GenerateResponse4text
FN:163,_RNvXs_NtNtCseXwexsNt0j5_10ditto_core9contracts3llmNtB4_15GenerateRequestINtNtCs7dTDQl1DYhd_4core7convert4FromINtNtCsdB7fS8jepxw_5alloc3vec3VecNtB4_7MessageEE4from
FN:48,_RINvMNtNtCseXwexsNt0j5_10ditto_core9contracts3llmNtB3_7Message11tool_resultppEB7_
FN:34,_RINvMNtNtCseXwexsNt0j5_10ditto_core9contracts3llmNtB3_7Message4userpEB7_
FN:27,_RINvMNtNtCseXwexsNt0j5_10ditto_core9contracts3llmNtB3_7Message6systempEB7_
FN:41,_RINvMNtNtCseXwexsNt0j5_10ditto_core9contracts3llmNtB3_7Message9assistantpEB7_
FNDA:0,_RNvMs0_NtNtCseXwexsNt0j5_10ditto_core9contracts3llmNtB5_16GenerateResponse4text
FNDA:0,_RNvXs_NtNtCseXwexsNt0j5_10ditto_core9contracts3llmNtB4_15GenerateRequestINtNtCs7dTDQl1DYhd_4core7convert4FromINtNtCsdB7fS8jepxw_5alloc3vec3VecNtB4_7MessageEE4from
FNDA:0,_RINvMNtNtCseXwexsNt0j5_10ditto_core9contracts3llmNtB3_7Message11tool_resultppEB7_
FNDA:0,_RINvMNtNtCseXwexsNt0j5_10ditto_core9contracts3llmNtB3_7Message4userpEB7_
FNDA:0,_RINvMNtNtCseXwexsNt0j5_10ditto_core9contracts3llmNtB3_7Message6systempEB7_
FNDA:0,_RINvMNtNtCseXwexsNt0j5_10ditto_core9contracts3llmNtB3_7Message9assistantpEB7_
FNF:6
FNH:0
DA:27,0
DA:28,0
DA:29,0
DA:30,0
DA:31,0
DA:32,0
DA:34,0
DA:35,0
DA:36,0
DA:37,0
DA:38,0
DA:39,0
DA:41,0
DA:42,0
DA:43,0
DA:44,0
DA:45,0
DA:46,0
DA:48,0
DA:49,0
DA:50,0
DA:51,0
DA:52,0
DA:53,0
DA:54,0
DA:55,0
DA:56,0
DA:57,0
DA:163,0
DA:164,0
DA:165,0
DA:166,0
DA:167,0
DA:168,0
DA:169,0
DA:170,0
DA:171,0
DA:172,0
DA:173,0
DA:174,0
DA:175,0
DA:176,0
DA:177,0
DA:178,0
DA:179,0
DA:180,0
DA:181,0
DA:199,0
DA:200,0
DA:201,0
DA:202,0
DA:203,0
DA:204,0
DA:206,0
DA:207,0
BRF:0
BRH:0
LF:55
LH:0
end_of_record
SF:/root/autodl-tmp/zjj/p/ditto-llm/crates/ditto-core/src/contracts/outcome.rs
FN:33,_RNvMNtNtCseXwexsNt0j5_10ditto_core9contracts7outcomeNtB2_5Usage11merge_total
FNDA:0,_RNvMNtNtCseXwexsNt0j5_10ditto_core9contracts7outcomeNtB2_5Usage11merge_total
FNF:1
FNH:0
DA:33,0
DA:34,0
DA:35,0
DA:36,0
DA:37,0
DA:38,0
DA:39,0
DA:40,0
BRF:0
BRH:0
LF:8
LH:0
end_of_record
SF:/root/autodl-tmp/zjj/p/ditto-llm/crates/ditto-core/src/contracts/provider.rs
FN:54,_RNvMNtNtCseXwexsNt0j5_10ditto_core9contracts8providerNtB2_22ProviderProtocolFamily18from_wire_protocol
FN:45,_RNvMNtNtCseXwexsNt0j5_10ditto_core9contracts8providerNtB2_22ProviderProtocolFamily19from_provider_class
FN:79,_RNvMNtNtCseXwexsNt0j5_10ditto_core9contracts8providerNtB2_22ProviderProtocolFamily5merge
FNDA:7,_RNvMNtNtCseXwexsNt0j5_10ditto_core9contracts8providerNtB2_22ProviderProtocolFamily18from_wire_protocol
FNDA:7,_RNvMNtNtCseXwexsNt0j5_10ditto_core9contracts8providerNtB2_22ProviderProtocolFamily19from_provider_class
FNDA:14,_RNvMNtNtCseXwexsNt0j5_10ditto_core9contracts8providerNtB2_22ProviderProtocolFamily5merge
FNF:3
FNH:3
DA:45,7
DA:46,7
DA:47,7
DA:48,0
DA:49,0
DA:50,0
DA:52,7
DA:54,7
DA:55,7
DA:56,7
DA:57,7
DA:58,0
DA:59,0
DA:60,0
DA:61,0
DA:62,0
DA:63,0
DA:64,0
DA:65,0
DA:66,0
DA:67,0
DA:68,0
DA:69,0
DA:70,0
DA:71,0
DA:72,0
DA:73,0
DA:75,0
DA:77,7
DA:79,14
DA:80,14
DA:81,7
DA:82,7
DA:83,0
DA:85,14
BRF:0
BRH:0
LF:35
LH:14
end_of_record
SF:/root/autodl-tmp/zjj/p/ditto-llm/crates/ditto-core/src/contracts/routing.rs
FN:19,_RNCNvMNtNtCseXwexsNt0j5_10ditto_core9contracts7routingNtB4_13ModelSelector7matches0B8_
FN:15,_RNvMNtNtCseXwexsNt0j5_10ditto_core9contracts7routingNtB2_13ModelSelector7matches
FN:157,_RNvMs0_NtNtCseXwexsNt0j5_10ditto_core9contracts7routingNtB5_19RuntimeRouteRequest10with_hints
FN:167,_RNvMs0_NtNtCseXwexsNt0j5_10ditto_core9contracts7routingNtB5_19RuntimeRouteRequest11provider_id
FN:152,_RNvMs0_NtNtCseXwexsNt0j5_10ditto_core9contracts7routingNtB5_19RuntimeRouteRequest18with_runtime_hints
FN:162,_RNvMs0_NtNtCseXwexsNt0j5_10ditto_core9contracts7routingNtB5_19RuntimeRouteRequest24with_required_capability
FN:141,_RNvMs0_NtNtCseXwexsNt0j5_10ditto_core9contracts7routingNtB5_19RuntimeRouteRequest3new
FN:191,_RNvMs2_NtNtCseXwexsNt0j5_10ditto_core9contracts7routingNtB5_12RuntimeRoute11http_method
FN:195,_RNvMs2_NtNtCseXwexsNt0j5_10ditto_core9contracts7routingNtB5_12RuntimeRoute4path
FN:187,_RNvMs2_NtNtCseXwexsNt0j5_10ditto_core9contracts7routingNtB5_12RuntimeRoute9transport
FN:51,_RNvMs_NtNtCseXwexsNt0j5_10ditto_core9contracts7routingNtB4_12ModelBinding11match_score
FN:47,_RNvMs_NtNtCseXwexsNt0j5_10ditto_core9contracts7routingNtB4_12ModelBinding7matches
FN:173,_RNvXs1_NtNtCseXwexsNt0j5_10ditto_core9contracts7routingNtB5_19RuntimeRouteRequestNtNtCs7dTDQl1DYhd_4core7default7Default7default
FNDA:0,_RNCNvMNtNtCseXwexsNt0j5_10ditto_core9contracts7routingNtB4_13ModelSelector7matches0B8_
FNDA:4,_RNvMNtNtCseXwexsNt0j5_10ditto_core9contracts7routingNtB2_13ModelSelector7matches
FNDA:0,_RNvMs0_NtNtCseXwexsNt0j5_10ditto_core9contracts7routingNtB5_19RuntimeRouteRequest10with_hints
FNDA:5,_RNvMs0_NtNtCseXwexsNt0j5_10ditto_core9contracts7routingNtB5_19RuntimeRouteRequest11provider_id
FNDA:5,_RNvMs0_NtNtCseXwexsNt0j5_10ditto_core9contracts7routingNtB5_19RuntimeRouteRequest18with_runtime_hints
FNDA:4,_RNvMs0_NtNtCseXwexsNt0j5_10ditto_core9contracts7routingNtB5_19RuntimeRouteRequest24with_required_capability
FNDA:5,_RNvMs0_NtNtCseXwexsNt0j5_10ditto_core9contracts7routingNtB5_19RuntimeRouteRequest3new
FNDA:0,_RNvMs2_NtNtCseXwexsNt0j5_10ditto_core9contracts7routingNtB5_12RuntimeRoute11http_method
FNDA:0,_RNvMs2_NtNtCseXwexsNt0j5_10ditto_core9contracts7routingNtB5_12RuntimeRoute4path
FNDA:0,_RNvMs2_NtNtCseXwexsNt0j5_10ditto_core9contracts7routingNtB5_12RuntimeRoute9transport
FNDA:4,_RNvMs_NtNtCseXwexsNt0j5_10ditto_core9contracts7routingNtB4_12ModelBinding11match_score
FNDA:0,_RNvMs_NtNtCseXwexsNt0j5_10ditto_core9contracts7routingNtB4_12ModelBinding7matches
FNDA:0,_RNvXs1_NtNtCseXwexsNt0j5_10ditto_core9contracts7routingNtB5_19RuntimeRouteRequestNtNtCs7dTDQl1DYhd_4core7default7Default7default
FNF:13
FNH:6
DA:15,4
DA:16,4
DA:17,4
DA:18,0
DA:19,0
DA:21,4
DA:47,0
DA:48,0
DA:49,0
DA:51,4
DA:52,4
DA:53,4
DA:54,4
DA:55,4
DA:56,4
DA:57,4
DA:58,0
DA:59,4
DA:61,4
DA:63,4
DA:64,0
DA:65,0
DA:66,0
DA:67,0
DA:68,4
DA:70,4
DA:71,0
DA:72,0
DA:73,0
DA:74,0
DA:75,4
DA:77,4
DA:78,0
DA:79,0
DA:80,0
DA:81,0
DA:82,0
DA:83,4
DA:85,4
DA:86,0
DA:87,0
DA:88,0
DA:89,0
DA:90,0
DA:91,4
DA:93,4
DA:94,4
DA:141,5
DA:142,5
DA:143,5
DA:144,5
DA:145,5
DA:146,5
DA:147,5
DA:148,5
DA:149,5
DA:150,5
DA:152,5
DA:153,5
DA:154,5
DA:155,5
DA:157,0
DA:158,0
DA:159,0
DA:160,0
DA:162,4
DA:163,4
DA:164,4
DA:165,4
DA:167,5
DA:168,5
DA:169,5
DA:173,0
DA:174,0
DA:175,0
DA:187,0
DA:188,0
DA:189,0
DA:191,0
DA:192,0
DA:193,0
DA:195,0
DA:196,0
DA:197,0
BRF:0
BRH:0
LF:85
LH:44
end_of_record
SF:/root/autodl-tmp/zjj/p/ditto-llm/crates/ditto-core/src/contracts/tool_call.rs
FN:13,_RNCNvNtNtCseXwexsNt0j5_10ditto_core9contracts9tool_call40parse_tool_call_arguments_json_or_string0B7_
FN:5,_RNvNtNtCseXwexsNt0j5_10ditto_core9contracts9tool_call40parse_tool_call_arguments_json_or_string
FNDA:0,_RNCNvNtNtCseXwexsNt0j5_10ditto_core9contracts9tool_call40parse_tool_call_arguments_json_or_string0B7_
FNDA:0,_RNvNtNtCseXwexsNt0j5_10ditto_core9contracts9tool_call40parse_tool_call_arguments_json_or_string
FNF:2
FNH:0
DA:5,0
DA:6,0
DA:7,0
DA:8,0
DA:9,0
DA:10,0
DA:11,0
DA:13,0
DA:14,0
DA:15,0
DA:16,0
DA:17,0
DA:18,0
DA:19,0
DA:20,0
DA:21,0
DA:22,0
BRF:0
BRH:0
LF:18
LH:0
end_of_record
SF:/root/autodl-tmp/zjj/p/ditto-llm/crates/ditto-core/src/foundation/secrets.rs
FN:477,_RINvNtNtCseXwexsNt0j5_10ditto_core10foundation7secrets12read_limitedNtNtCsp77RDs5XIs_5tokio7process11ChildStderrEB6_
FN:477,_RINvNtNtCseXwexsNt0j5_10ditto_core10foundation7secrets12read_limitedNtNtCsp77RDs5XIs_5tokio7process11ChildStdoutEB6_
FN:480,_RNCINvNtNtCseXwexsNt0j5_10ditto_core10foundation7secrets12read_limitedNtNtCsp77RDs5XIs_5tokio7process11ChildStderrE0B8_
FN:480,_RNCINvNtNtCseXwexsNt0j5_10ditto_core10foundation7secrets12read_limitedNtNtCsp77RDs5XIs_5tokio7process11ChildStdoutE0B8_
FN:107,_RNCNCNvMNtNtCseXwexsNt0j5_10ditto_core10foundation7secretsNtB6_10SecretSpec5parses0_00Ba_
FN:333,_RNCNCNvMNtNtCseXwexsNt0j5_10ditto_core10foundation7secretsNtB6_10SecretSpec7resolve00Ba_
FN:346,_RNCNCNvMNtNtCseXwexsNt0j5_10ditto_core10foundation7secretsNtB6_10SecretSpec7resolve0s0_0Ba_
FN:334,_RNCNCNvMNtNtCseXwexsNt0j5_10ditto_core10foundation7secretsNtB6_10SecretSpec7resolve0s_0Ba_
FN:396,_RNCNCNvNtNtCseXwexsNt0j5_10ditto_core10foundation7secrets18run_secret_command00B9_
FN:400,_RNCNCNvNtNtCseXwexsNt0j5_10ditto_core10foundation7secrets18run_secret_command0s0_0B9_
FN:412,_RNCNCNvNtNtCseXwexsNt0j5_10ditto_core10foundation7secrets18run_secret_command0s1_0B9_
FN:439,_RNCNCNvNtNtCseXwexsNt0j5_10ditto_core10foundation7secrets18run_secret_command0s2_0B9_
FN:442,_RNCNCNvNtNtCseXwexsNt0j5_10ditto_core10foundation7secrets18run_secret_command0s3_0B9_
FN:397,_RNCNCNvNtNtCseXwexsNt0j5_10ditto_core10foundation7secrets18run_secret_command0s_0B9_
FN:78,_RNCNvMNtNtCseXwexsNt0j5_10ditto_core10foundation7secretsNtB4_10SecretSpec5parse0B8_
FN:107,_RNCNvMNtNtCseXwexsNt0j5_10ditto_core10foundation7secretsNtB4_10SecretSpec5parses0_0B8_
FN:128,_RNCNvMNtNtCseXwexsNt0j5_10ditto_core10foundation7secretsNtB4_10SecretSpec5parses1_0B8_
FN:129,_RNCNvMNtNtCseXwexsNt0j5_10ditto_core10foundation7secretsNtB4_10SecretSpec5parses2_0B8_
FN:130,_RNCNvMNtNtCseXwexsNt0j5_10ditto_core10foundation7secretsNtB4_10SecretSpec5parses3_0B8_
FN:133,_RNCNvMNtNtCseXwexsNt0j5_10ditto_core10foundation7secretsNtB4_10SecretSpec5parses4_0B8_
FN:134,_RNCNvMNtNtCseXwexsNt0j5_10ditto_core10foundation7secretsNtB4_10SecretSpec5parses5_0B8_
FN:153,_RNCNvMNtNtCseXwexsNt0j5_10ditto_core10foundation7secretsNtB4_10SecretSpec5parses6_0B8_
FN:157,_RNCNvMNtNtCseXwexsNt0j5_10ditto_core10foundation7secretsNtB4_10SecretSpec5parses7_0B8_
FN:161,_RNCNvMNtNtCseXwexsNt0j5_10ditto_core10foundation7secretsNtB4_10SecretSpec5parses8_0B8_
FN:176,_RNCNvMNtNtCseXwexsNt0j5_10ditto_core10foundation7secretsNtB4_10SecretSpec5parses9_0B8_
FN:87,_RNCNvMNtNtCseXwexsNt0j5_10ditto_core10foundation7secretsNtB4_10SecretSpec5parses_0B8_
FN:180,_RNCNvMNtNtCseXwexsNt0j5_10ditto_core10foundation7secretsNtB4_10SecretSpec5parsesa_0B8_
FN:181,_RNCNvMNtNtCseXwexsNt0j5_10ditto_core10foundation7secretsNtB4_10SecretSpec5parsesb_0B8_
FN:185,_RNCNvMNtNtCseXwexsNt0j5_10ditto_core10foundation7secretsNtB4_10SecretSpec5parsesc_0B8_
FN:190,_RNCNvMNtNtCseXwexsNt0j5_10ditto_core10foundation7secretsNtB4_10SecretSpec5parsesd_0B8_
FN:208,_RNCNvMNtNtCseXwexsNt0j5_10ditto_core10foundation7secretsNtB4_10SecretSpec5parsese_0B8_
FN:329,_RNCNvMNtNtCseXwexsNt0j5_10ditto_core10foundation7secretsNtB4_10SecretSpec7resolve0B8_
FN:526,_RNCNvNtNtCseXwexsNt0j5_10ditto_core10foundation7secrets16extract_json_key0B7_
FN:527,_RNCNvNtNtCseXwexsNt0j5_10ditto_core10foundation7secrets16extract_json_keys_0B7_
FN:381,_RNCNvNtNtCseXwexsNt0j5_10ditto_core10foundation7secrets18run_secret_command0B7_
FN:501,_RNCNvNtNtCseXwexsNt0j5_10ditto_core10foundation7secrets21resolve_secret_string0B7_
FN:366,_RNCNvNtNtCseXwexsNt0j5_10ditto_core10foundation7secrets22secret_command_timeout0B7_
FN:374,_RNCNvNtNtCseXwexsNt0j5_10ditto_core10foundation7secrets22secret_command_timeouts0_0B7_
FN:375,_RNCNvNtNtCseXwexsNt0j5_10ditto_core10foundation7secrets22secret_command_timeouts1_0B7_
FN:367,_RNCNvNtNtCseXwexsNt0j5_10ditto_core10foundation7secrets22secret_command_timeouts_0B7_
FN:217,_RNvMNtNtCseXwexsNt0j5_10ditto_core10foundation7secretsNtB2_10SecretSpec13build_command
FN:76,_RNvMNtNtCseXwexsNt0j5_10ditto_core10foundation7secretsNtB2_10SecretSpec5parse
FN:329,_RNvMNtNtCseXwexsNt0j5_10ditto_core10foundation7secretsNtB2_10SecretSpec7resolve
FN:506,_RNvNtNtCseXwexsNt0j5_10ditto_core10foundation7secrets11parse_query
FN:523,_RNvNtNtCseXwexsNt0j5_10ditto_core10foundation7secrets16extract_json_key
FN:381,_RNvNtNtCseXwexsNt0j5_10ditto_core10foundation7secrets18run_secret_command
FN:501,_RNvNtNtCseXwexsNt0j5_10ditto_core10foundation7secrets21resolve_secret_string
FN:363,_RNvNtNtCseXwexsNt0j5_10ditto_core10foundation7secrets22secret_command_timeout
FN:30,_RNvXs4_NtNtCseXwexsNt0j5_10ditto_core10foundation7secretsNtB5_21DefaultSecretResolverNtB5_14SecretResolver21resolve_secret_string
FNDA:0,_RINvNtNtCseXwexsNt0j5_10ditto_core10foundation7secrets12read_limitedNtNtCsp77RDs5XIs_5tokio7process11ChildStderrEB6_
FNDA:0,_RINvNtNtCseXwexsNt0j5_10ditto_core10foundation7secrets12read_limitedNtNtCsp77RDs5XIs_5tokio7process11ChildStdoutEB6_
FNDA:0,_RNCINvNtNtCseXwexsNt0j5_10ditto_core10foundation7secrets12read_limitedNtNtCsp77RDs5XIs_5tokio7process11ChildStderrE0B8_
FNDA:0,_RNCINvNtNtCseXwexsNt0j5_10ditto_core10foundation7secrets12read_limitedNtNtCsp77RDs5XIs_5tokio7process11ChildStdoutE0B8_
FNDA:0,_RNCNCNvMNtNtCseXwexsNt0j5_10ditto_core10foundation7secretsNtB6_10SecretSpec5parses0_00Ba_
FNDA:0,_RNCNCNvMNtNtCseXwexsNt0j5_10ditto_core10foundation7secretsNtB6_10SecretSpec7resolve00Ba_
FNDA:0,_RNCNCNvMNtNtCseXwexsNt0j5_10ditto_core10foundation7secretsNtB6_10SecretSpec7resolve0s0_0Ba_
FNDA:0,_RNCNCNvMNtNtCseXwexsNt0j5_10ditto_core10foundation7secretsNtB6_10SecretSpec7resolve0s_0Ba_
FNDA:0,_RNCNCNvNtNtCseXwexsNt0j5_10ditto_core10foundation7secrets18run_secret_command00B9_
FNDA:0,_RNCNCNvNtNtCseXwexsNt0j5_10ditto_core10foundation7secrets18run_secret_command0s0_0B9_
FNDA:0,_RNCNCNvNtNtCseXwexsNt0j5_10ditto_core10foundation7secrets18run_secret_command0s1_0B9_
FNDA:0,_RNCNCNvNtNtCseXwexsNt0j5_10ditto_core10foundation7secrets18run_secret_command0s2_0B9_
FNDA:0,_RNCNCNvNtNtCseXwexsNt0j5_10ditto_core10foundation7secrets18run_secret_command0s3_0B9_
FNDA:0,_RNCNCNvNtNtCseXwexsNt0j5_10ditto_core10foundation7secrets18run_secret_command0s_0B9_
FNDA:0,_RNCNvMNtNtCseXwexsNt0j5_10ditto_core10foundation7secretsNtB4_10SecretSpec5parse0B8_
FNDA:0,_RNCNvMNtNtCseXwexsNt0j5_10ditto_core10foundation7secretsNtB4_10SecretSpec5parses0_0B8_
FNDA:0,_RNCNvMNtNtCseXwexsNt0j5_10ditto_core10foundation7secretsNtB4_10SecretSpec5parses1_0B8_
FNDA:0,_RNCNvMNtNtCseXwexsNt0j5_10ditto_core10foundation7secretsNtB4_10SecretSpec5parses2_0B8_
FNDA:0,_RNCNvMNtNtCseXwexsNt0j5_10ditto_core10foundation7secretsNtB4_10SecretSpec5parses3_0B8_
FNDA:0,_RNCNvMNtNtCseXwexsNt0j5_10ditto_core10foundation7secretsNtB4_10SecretSpec5parses4_0B8_
FNDA:0,_RNCNvMNtNtCseXwexsNt0j5_10ditto_core10foundation7secretsNtB4_10SecretSpec5parses5_0B8_
FNDA:0,_RNCNvMNtNtCseXwexsNt0j5_10ditto_core10foundation7secretsNtB4_10SecretSpec5parses6_0B8_
FNDA:0,_RNCNvMNtNtCseXwexsNt0j5_10ditto_core10foundation7secretsNtB4_10SecretSpec5parses7_0B8_
FNDA:0,_RNCNvMNtNtCseXwexsNt0j5_10ditto_core10foundation7secretsNtB4_10SecretSpec5parses8_0B8_
FNDA:0,_RNCNvMNtNtCseXwexsNt0j5_10ditto_core10foundation7secretsNtB4_10SecretSpec5parses9_0B8_
FNDA:0,_RNCNvMNtNtCseXwexsNt0j5_10ditto_core10foundation7secretsNtB4_10SecretSpec5parses_0B8_
FNDA:0,_RNCNvMNtNtCseXwexsNt0j5_10ditto_core10foundation7secretsNtB4_10SecretSpec5parsesa_0B8_
FNDA:0,_RNCNvMNtNtCseXwexsNt0j5_10ditto_core10foundation7secretsNtB4_10SecretSpec5parsesb_0B8_
FNDA:0,_RNCNvMNtNtCseXwexsNt0j5_10ditto_core10foundation7secretsNtB4_10SecretSpec5parsesc_0B8_
FNDA:0,_RNCNvMNtNtCseXwexsNt0j5_10ditto_core10foundation7secretsNtB4_10SecretSpec5parsesd_0B8_
FNDA:0,_RNCNvMNtNtCseXwexsNt0j5_10ditto_core10foundation7secretsNtB4_10SecretSpec5parsese_0B8_
FNDA:0,_RNCNvMNtNtCseXwexsNt0j5_10ditto_core10foundation7secretsNtB4_10SecretSpec7resolve0B8_
FNDA:0,_RNCNvNtNtCseXwexsNt0j5_10ditto_core10foundation7secrets16extract_json_key0B7_
FNDA:0,_RNCNvNtNtCseXwexsNt0j5_10ditto_core10foundation7secrets16extract_json_keys_0B7_
FNDA:0,_RNCNvNtNtCseXwexsNt0j5_10ditto_core10foundation7secrets18run_secret_command0B7_
FNDA:0,_RNCNvNtNtCseXwexsNt0j5_10ditto_core10foundation7secrets21resolve_secret_string0B7_
FNDA:0,_RNCNvNtNtCseXwexsNt0j5_10ditto_core10foundation7secrets22secret_command_timeout0B7_
FNDA:0,_RNCNvNtNtCseXwexsNt0j5_10ditto_core10foundation7secrets22secret_command_timeouts0_0B7_
FNDA:0,_RNCNvNtNtCseXwexsNt0j5_10ditto_core10foundation7secrets22secret_command_timeouts1_0B7_
FNDA:0,_RNCNvNtNtCseXwexsNt0j5_10ditto_core10foundation7secrets22secret_command_timeouts_0B7_
FNDA:0,_RNvMNtNtCseXwexsNt0j5_10ditto_core10foundation7secretsNtB2_10SecretSpec13build_command
FNDA:0,_RNvMNtNtCseXwexsNt0j5_10ditto_core10foundation7secretsNtB2_10SecretSpec5parse
FNDA:0,_RNvMNtNtCseXwexsNt0j5_10ditto_core10foundation7secretsNtB2_10SecretSpec7resolve
FNDA:0,_RNvNtNtCseXwexsNt0j5_10ditto_core10foundation7secrets11parse_query
FNDA:0,_RNvNtNtCseXwexsNt0j5_10ditto_core10foundation7secrets16extract_json_key
FNDA:0,_RNvNtNtCseXwexsNt0j5_10ditto_core10foundation7secrets18run_secret_command
FNDA:0,_RNvNtNtCseXwexsNt0j5_10ditto_core10foundation7secrets21resolve_secret_string
FNDA:0,_RNvNtNtCseXwexsNt0j5_10ditto_core10foundation7secrets22secret_command_timeout
FNDA:0,_RNvXs4_NtNtCseXwexsNt0j5_10ditto_core10foundation7secretsNtB5_21DefaultSecretResolverNtB5_14SecretResolver21resolve_secret_string
FNF:47
FNH:0
DA:30,0
DA:32,0
DA:76,0
DA:77,0
DA:78,0
DA:79,0
DA:80,0
DA:82,0
DA:83,0
DA:85,0
DA:86,0
DA:87,0
DA:88,0
DA:89,0
DA:91,0
DA:92,0
DA:93,0
DA:94,0
DA:95,0
DA:96,0
DA:97,0
DA:98,0
DA:99,0
DA:100,0
DA:101,0
DA:103,0
DA:104,0
DA:105,0
DA:106,0
DA:107,0
DA:108,0
DA:109,0
DA:110,0
DA:111,0
DA:112,0
DA:113,0
DA:114,0
DA:115,0
DA:116,0
DA:117,0
DA:119,0
DA:120,0
DA:121,0
DA:122,0
DA:123,0
DA:124,0
DA:125,0
DA:126,0
DA:127,0
DA:128,0
DA:129,0
DA:130,0
DA:131,0
DA:132,0
DA:133,0
DA:134,0
DA:135,0
DA:136,0
DA:137,0
DA:138,0
DA:139,0
DA:141,0
DA:142,0
DA:143,0
DA:144,0
DA:145,0
DA:146,0
DA:147,0
DA:149,0
DA:150,0
DA:151,0
DA:152,0
DA:153,0
DA:154,0
DA:155,0
DA:156,0
DA:157,0
DA:158,0
DA:159,0
DA:160,0
DA:161,0
DA:164,0
DA:165,0
DA:166,0
DA:167,0
DA:168,0
DA:169,0
DA:170,0
DA:172,0
DA:173,0
DA:174,0
DA:175,0
DA:176,0
DA:177,0
DA:178,0
DA:179,0
DA:180,0
DA:181,0
DA:182,0
DA:183,0
DA:184,0
DA:185,0
DA:188,0
DA:189,0
DA:190,0
DA:191,0
DA:192,0
DA:193,0
DA:194,0
DA:195,0
DA:196,0
DA:197,0
DA:198,0
DA:199,0
DA:200,0
DA:201,0
DA:203,0
DA:204,0
DA:205,0
DA:206,0
DA:207,0
DA:208,0
DA:211,0
DA:212,0
DA:213,0
DA:215,0
DA:217,0
DA:218,0
DA:219,0
DA:221,0
DA:222,0
DA:223,0
DA:225,0
DA:226,0
DA:227,0
DA:228,0
DA:229,0
DA:230,0
DA:231,0
DA:232,0
DA:233,0
DA:234,0
DA:235,0
DA:236,0
DA:237,0
DA:238,0
DA:239,0
DA:242,0
DA:243,0
DA:244,0
DA:245,0
DA:247,0
DA:248,0
DA:249,0
DA:250,0
DA:251,0
DA:252,0
DA:253,0
DA:254,0
DA:255,0
DA:257,0
DA:258,0
DA:259,0
DA:260,0
DA:261,0
DA:262,0
DA:263,0
DA:264,0
DA:265,0
DA:266,0
DA:267,0
DA:268,0
DA:269,0
DA:270,0
DA:273,0
DA:274,0
DA:275,0
DA:276,0
DA:278,0
DA:279,0
DA:280,0
DA:281,0
DA:282,0
DA:283,0
DA:284,0
DA:286,0
DA:287,0
DA:288,0
DA:289,0
DA:290,0
DA:291,0
DA:292,0
DA:293,0
DA:294,0
DA:295,0
DA:298,0
DA:299,0
DA:300,0
DA:302,0
DA:303,0
DA:304,0
DA:305,0
DA:306,0
DA:307,0
DA:308,0
DA:309,0
DA:310,0
DA:311,0
DA:312,0
DA:313,0
DA:315,0
DA:316,0
DA:317,0
DA:318,0
DA:319,0
DA:320,0
DA:321,0
DA:322,0
DA:323,0
DA:324,0
DA:327,0
DA:329,0
DA:330,0
DA:331,0
DA:332,0
DA:333,0
DA:334,0
DA:335,0
DA:336,0
DA:337,0
DA:338,0
DA:339,0
DA:340,0
DA:341,0
DA:342,0
DA:343,0
DA:345,0
DA:346,0
DA:347,0
DA:348,0
DA:349,0
DA:350,0
DA:351,0
DA:352,0
DA:353,0
DA:354,0
DA:357,0
DA:363,0
DA:364,0
DA:365,0
DA:366,0
DA:367,0
DA:368,0
DA:369,0
DA:370,0
DA:372,0
DA:373,0
DA:374,0
DA:375,0
DA:376,0
DA:377,0
DA:378,0
DA:379,0
DA:381,0
DA:382,0
DA:384,0
DA:385,0
DA:386,0
DA:387,0
DA:388,0
DA:390,0
DA:391,0
DA:392,0
DA:394,0
DA:395,0
DA:396,0
DA:397,0
DA:398,0
DA:399,0
DA:400,0
DA:401,0
DA:402,0
DA:406,0
DA:407,0
DA:409,0
DA:410,0
DA:411,0
DA:412,0
DA:413,0
DA:416,0
DA:417,0
DA:418,0
DA:419,0
DA:420,0
DA:421,0
DA:422,0
DA:426,0
DA:427,0
DA:428,0
DA:429,0
DA:430,0
DA:431,0
DA:432,0
DA:433,0
DA:437,0
DA:438,0
DA:439,0
DA:440,0
DA:441,0
DA:442,0
DA:444,0
DA:445,0
DA:446,0
DA:447,0
DA:448,0
DA:449,0
DA:450,0
DA:451,0
DA:452,0
DA:454,0
DA:455,0
DA:456,0
DA:457,0
DA:458,0
DA:459,0
DA:460,0
DA:461,0
DA:462,0
DA:463,0
DA:464,0
DA:466,0
DA:467,0
DA:468,0
DA:469,0
DA:470,0
DA:471,0
DA:472,0
DA:473,0
DA:474,0
DA:475,0
DA:477,0
DA:478,0
DA:479,0
DA:480,0
DA:483,0
DA:484,0
DA:486,0
DA:487,0
DA:488,0
DA:489,0
DA:490,0
DA:491,0
DA:492,0
DA:493,0
DA:494,0
DA:495,0
DA:496,0
DA:498,0
DA:499,0
DA:501,0
DA:502,0
DA:503,0
DA:504,0
DA:506,0
DA:507,0
DA:508,0
DA:509,0
DA:510,0
DA:511,0
DA:512,0
DA:513,0
DA:514,0
DA:515,0
DA:516,0
DA:517,0
DA:518,0
DA:520,0
DA:521,0
DA:523,0
DA:524,0
DA:525,0
DA:526,0
DA:527,0
DA:528,0
DA:529,0
DA:531,0
DA:532,0
DA:533,0
DA:534,0
DA:535,0
DA:537,0
BRF:0
BRH:0
LF:433
LH:0
end_of_record
SF:/root/autodl-tmp/zjj/p/ditto-llm/crates/ditto-core/src/llm_core/layer.rs
FN:49,_RNvMNtNtCseXwexsNt0j5_10ditto_core8llm_core5layerNtB2_20LayeredLanguageModel5inner
FN:68,_RNvXs1_NtNtCseXwexsNt0j5_10ditto_core8llm_core5layerNtB5_20LayeredLanguageModelNtNtB7_5model13LanguageModel6stream
FN:64,_RNvXs1_NtNtCseXwexsNt0j5_10ditto_core8llm_core5layerNtB5_20LayeredLanguageModelNtNtB7_5model13LanguageModel8generate
FN:60,_RNvXs1_NtNtCseXwexsNt0j5_10ditto_core8llm_core5layerNtB5_20LayeredLanguageModelNtNtB7_5model13LanguageModel8model_id
FN:56,_RNvXs1_NtNtCseXwexsNt0j5_10ditto_core8llm_core5layerNtB5_20LayeredLanguageModelNtNtB7_5model13LanguageModel8provider
FN:42,_RINvMNtNtCseXwexsNt0j5_10ditto_core8llm_core5layerNtB3_20LayeredLanguageModel10with_layerpEB7_
FN:32,_RINvMNtNtCseXwexsNt0j5_10ditto_core8llm_core5layerNtB3_20LayeredLanguageModel3newpEB7_
FN:74,_RINvYpNtNtNtCseXwexsNt0j5_10ditto_core8llm_core5layer21LanguageModelLayerExt5layerpEBa_
FNDA:0,_RNvMNtNtCseXwexsNt0j5_10ditto_core8llm_core5layerNtB2_20LayeredLanguageModel5inner
FNDA:0,_RNvXs1_NtNtCseXwexsNt0j5_10ditto_core8llm_core5layerNtB5_20LayeredLanguageModelNtNtB7_5model13LanguageModel6stream
FNDA:0,_RNvXs1_NtNtCseXwexsNt0j5_10ditto_core8llm_core5layerNtB5_20LayeredLanguageModelNtNtB7_5model13LanguageModel8generate
FNDA:0,_RNvXs1_NtNtCseXwexsNt0j5_10ditto_core8llm_core5layerNtB5_20LayeredLanguageModelNtNtB7_5model13LanguageModel8model_id
FNDA:0,_RNvXs1_NtNtCseXwexsNt0j5_10ditto_core8llm_core5layerNtB5_20LayeredLanguageModelNtNtB7_5model13LanguageModel8provider
FNDA:0,_RINvMNtNtCseXwexsNt0j5_10ditto_core8llm_core5layerNtB3_20LayeredLanguageModel10with_layerpEB7_
FNDA:0,_RINvMNtNtCseXwexsNt0j5_10ditto_core8llm_core5layerNtB3_20LayeredLanguageModel3newpEB7_
FNDA:0,_RINvYpNtNtNtCseXwexsNt0j5_10ditto_core8llm_core5layer21LanguageModelLayerExt5layerpEBa_
FNF:8
FNH:0
DA:32,0
DA:33,0
DA:34,0
DA:36,0
DA:37,0
DA:38,0
DA:39,0
DA:40,0
DA:42,0
DA:43,0
DA:44,0
DA:46,0
DA:47,0
DA:49,0
DA:50,0
DA:51,0
DA:56,0
DA:57,0
DA:58,0
DA:60,0
DA:61,0
DA:62,0
DA:64,0
DA:66,0
DA:68,0
DA:70,0
DA:74,0
DA:75,0
DA:76,0
DA:78,0
DA:79,0
BRF:0
BRH:0
LF:31
LH:0
end_of_record
SF:/root/autodl-tmp/zjj/p/ditto-llm/crates/ditto-core/src/llm_core/stream.rs
FN:466,_RNCNvMs_NtNtCseXwexsNt0j5_10ditto_core8llm_core6streamNtB6_15StreamCollector6finish0Ba_
FN:496,_RNCNvMs_NtNtCseXwexsNt0j5_10ditto_core8llm_core6streamNtB6_15StreamCollector6finishs_0Ba_
FN:571,_RNCNvNtNtCseXwexsNt0j5_10ditto_core8llm_core6stream14collect_stream0B7_
FN:543,_RNCNvNtNtCseXwexsNt0j5_10ditto_core8llm_core6stream16abortable_stream0B7_
FN:523,_RNvMs0_NtNtCseXwexsNt0j5_10ditto_core8llm_core6streamNtB5_17StreamAbortHandle5abort
FN:123,_RNvMs_NtNtCseXwexsNt0j5_10ditto_core8llm_core6streamNtB4_15StreamCollector13can_push_part
FN:297,_RNvMs_NtNtCseXwexsNt0j5_10ditto_core8llm_core6streamNtB4_15StreamCollector13observe_owned
FN:101,_RNvMs_NtNtCseXwexsNt0j5_10ditto_core8llm_core6streamNtB4_15StreamCollector13try_add_bytes
FN:507,_RNvMs_NtNtCseXwexsNt0j5_10ditto_core8llm_core6streamNtB4_15StreamCollector16finish_collected
FN:140,_RNvMs_NtNtCseXwexsNt0j5_10ditto_core8llm_core6streamNtB4_15StreamCollector19warn_max_tool_calls
FN:89,_RNvMs_NtNtCseXwexsNt0j5_10ditto_core8llm_core6streamNtB4_15StreamCollector29warn_empty_tool_call_id_delta
FN:78,_RNvMs_NtNtCseXwexsNt0j5_10ditto_core8llm_core6streamNtB4_15StreamCollector29warn_empty_tool_call_id_start
FN:440,_RNvMs_NtNtCseXwexsNt0j5_10ditto_core8llm_core6streamNtB4_15StreamCollector6finish
FN:154,_RNvMs_NtNtCseXwexsNt0j5_10ditto_core8llm_core6streamNtB4_15StreamCollector7observe
FN:571,_RNvNtNtCseXwexsNt0j5_10ditto_core8llm_core6stream14collect_stream
FN:534,_RNvNtNtCseXwexsNt0j5_10ditto_core8llm_core6stream16abortable_stream
FN:49,_RNvXNtNtCseXwexsNt0j5_10ditto_core8llm_core6streamNtB2_21StreamCollectorLimitsNtNtCs7dTDQl1DYhd_4core7default7Default7default
FN:563,_RNvYpNtNtNtCseXwexsNt0j5_10ditto_core8llm_core6stream16LanguageModelExt16stream_abortableB9_
FNDA:0,_RNCNvMs_NtNtCseXwexsNt0j5_10ditto_core8llm_core6streamNtB6_15StreamCollector6finish0Ba_
FNDA:0,_RNCNvMs_NtNtCseXwexsNt0j5_10ditto_core8llm_core6streamNtB6_15StreamCollector6finishs_0Ba_
FNDA:0,_RNCNvNtNtCseXwexsNt0j5_10ditto_core8llm_core6stream14collect_stream0B7_
FNDA:0,_RNCNvNtNtCseXwexsNt0j5_10ditto_core8llm_core6stream16abortable_stream0B7_
FNDA:0,_RNvMs0_NtNtCseXwexsNt0j5_10ditto_core8llm_core6streamNtB5_17StreamAbortHandle5abort
FNDA:0,_RNvMs_NtNtCseXwexsNt0j5_10ditto_core8llm_core6streamNtB4_15StreamCollector13can_push_part
FNDA:0,_RNvMs_NtNtCseXwexsNt0j5_10ditto_core8llm_core6streamNtB4_15StreamCollector13observe_owned
FNDA:0,_RNvMs_NtNtCseXwexsNt0j5_10ditto_core8llm_core6streamNtB4_15StreamCollector13try_add_bytes
FNDA:0,_RNvMs_NtNtCseXwexsNt0j5_10ditto_core8llm_core6streamNtB4_15StreamCollector16finish_collected
FNDA:0,_RNvMs_NtNtCseXwexsNt0j5_10ditto_core8llm_core6streamNtB4_15StreamCollector19warn_max_tool_calls
FNDA:0,_RNvMs_NtNtCseXwexsNt0j5_10ditto_core8llm_core6streamNtB4_15StreamCollector29warn_empty_tool_call_id_delta
FNDA:0,_RNvMs_NtNtCseXwexsNt0j5_10ditto_core8llm_core6streamNtB4_15StreamCollector29warn_empty_tool_call_id_start
FNDA:0,_RNvMs_NtNtCseXwexsNt0j5_10ditto_core8llm_core6streamNtB4_15StreamCollector6finish
FNDA:0,_RNvMs_NtNtCseXwexsNt0j5_10ditto_core8llm_core6streamNtB4_15StreamCollector7observe
FNDA:0,_RNvNtNtCseXwexsNt0j5_10ditto_core8llm_core6stream14collect_stream
FNDA:0,_RNvNtNtCseXwexsNt0j5_10ditto_core8llm_core6stream16abortable_stream
FNDA:0,_RNvXNtNtCseXwexsNt0j5_10ditto_core8llm_core6streamNtB2_21StreamCollectorLimitsNtNtCs7dTDQl1DYhd_4core7default7Default7default
FNDA:0,_RNvYpNtNtNtCseXwexsNt0j5_10ditto_core8llm_core6stream16LanguageModelExt16stream_abortableB9_
FNF:18
FNH:0
DA:49,0
DA:50,0
DA:51,0
DA:52,0
DA:53,0
DA:54,0
DA:55,0
DA:56,0
DA:78,0
DA:79,0
DA:80,0
DA:81,0
DA:82,0
DA:83,0
DA:84,0
DA:85,0
DA:86,0
DA:87,0
DA:89,0
DA:90,0
DA:91,0
DA:92,0
DA:93,0
DA:94,0
DA:95,0
DA:96,0
DA:97,0
DA:98,0
DA:99,0
DA:101,0
DA:102,0
DA:103,0
DA:104,0
DA:105,0
DA:106,0
DA:107,0
DA:108,0
DA:109,0
DA:110,0
DA:111,0
DA:112,0
DA:113,0
DA:114,0
DA:115,0
DA:116,0
DA:117,0
DA:118,0
DA:119,0
DA:120,0
DA:121,0
DA:123,0
DA:124,0
DA:125,0
DA:126,0
DA:127,0
DA:128,0
DA:129,0
DA:130,0
DA:131,0
DA:132,0
DA:133,0
DA:134,0
DA:135,0
DA:136,0
DA:137,0
DA:138,0
DA:140,0
DA:141,0
DA:142,0
DA:143,0
DA:144,0
DA:145,0
DA:146,0
DA:147,0
DA:148,0
DA:149,0
DA:150,0
DA:151,0
DA:152,0
DA:154,0
DA:155,0
DA:156,0
DA:157,0
DA:158,0
DA:159,0
DA:160,0
DA:162,0
DA:163,0
DA:164,0
DA:165,0
DA:166,0
DA:167,0
DA:168,0
DA:169,0
DA:170,0
DA:171,0
DA:172,0
DA:173,0
DA:174,0
DA:176,0
DA:177,0
DA:178,0
DA:179,0
DA:180,0
DA:181,0
DA:183,0
DA:184,0
DA:185,0
DA:186,0
DA:187,0
DA:188,0
DA:189,0
DA:190,0
DA:191,0
DA:192,0
DA:193,0
DA:194,0
DA:195,0
DA:197,0
DA:198,0
DA:199,0
DA:200,0
DA:201,0
DA:202,0
DA:204,0
DA:205,0
DA:206,0
DA:207,0
DA:208,0
DA:211,0
DA:212,0
DA:213,0
DA:214,0
DA:215,0
DA:216,0
DA:217,0
DA:218,0
DA:219,0
DA:220,0
DA:223,0
DA:224,0
DA:225,0
DA:226,0
DA:228,0
DA:229,0
DA:230,0
DA:231,0
DA:232,0
DA:233,0
DA:236,0
DA:237,0
DA:239,0
DA:240,0
DA:241,0
DA:242,0
DA:245,0
DA:246,0
DA:248,0
DA:249,0
DA:250,0
DA:251,0
DA:252,0
DA:253,0
DA:254,0
DA:255,0
DA:259,0
DA:260,0
DA:261,0
DA:262,0
DA:263,0
DA:265,0
DA:266,0
DA:267,0
DA:268,0
DA:269,0
DA:270,0
DA:271,0
DA:272,0
DA:273,0
DA:274,0
DA:275,0
DA:276,0
DA:277,0
DA:280,0
DA:281,0
DA:282,0
DA:283,0
DA:284,0
DA:285,0
DA:286,0
DA:287,0
DA:288,0
DA:289,0
DA:290,0
DA:292,0
DA:293,0
DA:295,0
DA:297,0
DA:298,0
DA:299,0
DA:300,0
DA:301,0
DA:302,0
DA:303,0
DA:305,0
DA:306,0
DA:307,0
DA:308,0
DA:309,0
DA:310,0
DA:311,0
DA:312,0
DA:313,0
DA:314,0
DA:315,0
DA:316,0
DA:317,0
DA:319,0
DA:320,0
DA:321,0
DA:322,0
DA:323,0
DA:324,0
DA:326,0
DA:327,0
DA:328,0
DA:329,0
DA:330,0
DA:331,0
DA:332,0
DA:333,0
DA:334,0
DA:335,0
DA:336,0
DA:337,0
DA:338,0
DA:340,0
DA:341,0
DA:342,0
DA:343,0
DA:344,0
DA:345,0
DA:347,0
DA:348,0
DA:349,0
DA:350,0
DA:351,0
DA:354,0
DA:355,0
DA:356,0
DA:357,0
DA:358,0
DA:359,0
DA:360,0
DA:361,0
DA:362,0
DA:363,0
DA:366,0
DA:367,0
DA:368,0
DA:369,0
DA:371,0
DA:372,0
DA:373,0
DA:374,0
DA:375,0
DA:376,0
DA:379,0
DA:380,0
DA:382,0
DA:383,0
DA:384,0
DA:385,0
DA:388,0
DA:389,0
DA:391,0
DA:392,0
DA:393,0
DA:394,0
DA:395,0
DA:396,0
DA:397,0
DA:398,0
DA:402,0
DA:403,0
DA:404,0
DA:405,0
DA:406,0
DA:408,0
DA:409,0
DA:410,0
DA:411,0
DA:412,0
DA:413,0
DA:414,0
DA:415,0
DA:416,0
DA:417,0
DA:418,0
DA:419,0
DA:420,0
DA:423,0
DA:424,0
DA:425,0
DA:426,0
DA:427,0
DA:428,0
DA:429,0
DA:430,0
DA:431,0
DA:432,0
DA:433,0
DA:435,0
DA:436,0
DA:438,0
DA:440,0
DA:441,0
DA:443,0
DA:445,0
DA:446,0
DA:447,0
DA:448,0
DA:449,0
DA:450,0
DA:452,0
DA:453,0
DA:454,0
DA:455,0
DA:457,0
DA:458,0
DA:459,0
DA:462,0
DA:463,0
DA:464,0
DA:465,0
DA:466,0
DA:468,0
DA:469,0
DA:470,0
DA:471,0
DA:472,0
DA:473,0
DA:474,0
DA:477,0
DA:478,0
DA:479,0
DA:480,0
DA:481,0
DA:484,0
DA:485,0
DA:486,0
DA:487,0
DA:488,0
DA:493,0
DA:494,0
DA:495,0
DA:496,0
DA:498,0
DA:499,0
DA:500,0
DA:501,0
DA:502,0
DA:503,0
DA:504,0
DA:505,0
DA:507,0
DA:508,0
DA:509,0
DA:510,0
DA:511,0
DA:512,0
DA:513,0
DA:523,0
DA:524,0
DA:525,0
DA:526,0
DA:534,0
DA:535,0
DA:536,0
DA:537,0
DA:538,0
DA:539,0
DA:540,0
DA:542,0
DA:543,0
DA:544,0
DA:546,0
DA:547,0
DA:548,0
DA:549,0
DA:551,0
DA:552,0
DA:554,0
DA:555,0
DA:556,0
DA:558,0
DA:559,0
DA:563,0
DA:566,0
DA:571,0
DA:572,0
DA:573,0
DA:574,0
DA:576,0
DA:577,0
BRF:0
BRH:0
LF:409
LH:0
end_of_record
SF:/root/autodl-tmp/zjj/p/ditto-llm/crates/ditto-core/src/object/core.rs
FN:659,_RNCNCNCNvNtNtCseXwexsNt0j5_10ditto_core6object4core48stream_object_from_stream_with_config_and_limitss0_000Bb_
FN:650,_RNCNCNCNvNtNtCseXwexsNt0j5_10ditto_core6object4core48stream_object_from_stream_with_config_and_limitss_000Bb_
FN:701,_RNCNCNvNtNtCseXwexsNt0j5_10ditto_core6object4core18parse_final_object00B9_
FN:657,_RNCNCNvNtNtCseXwexsNt0j5_10ditto_core6object4core48stream_object_from_stream_with_config_and_limitss0_00B9_
FN:648,_RNCNCNvNtNtCseXwexsNt0j5_10ditto_core6object4core48stream_object_from_stream_with_config_and_limitss_00B9_
FN:700,_RNCNvNtNtCseXwexsNt0j5_10ditto_core6object4core18parse_final_object0B7_
FN:830,_RNCNvNtNtCseXwexsNt0j5_10ditto_core6object4core22request_with_tool_call0B7_
FN:872,_RNCNvNtNtCseXwexsNt0j5_10ditto_core6object4core30extract_object_from_tool_calls0B7_
FN:361,_RNCNvNtNtCseXwexsNt0j5_10ditto_core6object4core48stream_object_from_stream_with_config_and_limits0B7_
FN:660,_RNCNvNtNtCseXwexsNt0j5_10ditto_core6object4core48stream_object_from_stream_with_config_and_limitss0_0B7_
FN:651,_RNCNvNtNtCseXwexsNt0j5_10ditto_core6object4core48stream_object_from_stream_with_config_and_limitss_0B7_
FN:141,_RNvMs_NtNtCseXwexsNt0j5_10ditto_core6object4coreNtB4_18StreamObjectResult10final_json
FN:125,_RNvMs_NtNtCseXwexsNt0j5_10ditto_core6object4coreNtB4_18StreamObjectResult12into_streams
FN:149,_RNvMs_NtNtCseXwexsNt0j5_10ditto_core6object4coreNtB4_18StreamObjectResult13final_summary
FN:114,_RNvMs_NtNtCseXwexsNt0j5_10ditto_core6object4coreNtB4_18StreamObjectResult19into_element_stream
FN:103,_RNvMs_NtNtCseXwexsNt0j5_10ditto_core6object4coreNtB4_18StreamObjectResult19into_partial_stream
FN:99,_RNvMs_NtNtCseXwexsNt0j5_10ditto_core6object4coreNtB4_18StreamObjectResult6handle
FN:137,_RNvMs_NtNtCseXwexsNt0j5_10ditto_core6object4coreNtB4_18StreamObjectResult7is_done
FN:759,_RNvNtNtCseXwexsNt0j5_10ditto_core6object4core17schema_for_output
FN:690,_RNvNtNtCseXwexsNt0j5_10ditto_core6object4core18parse_final_object
FN:772,_RNvNtNtCseXwexsNt0j5_10ditto_core6object4core21ensure_output_matches
FN:797,_RNvNtNtCseXwexsNt0j5_10ditto_core6object4core22request_with_tool_call
FN:842,_RNvNtNtCseXwexsNt0j5_10ditto_core6object4core23extract_tool_call_value
FN:744,_RNvNtNtCseXwexsNt0j5_10ditto_core6object4core23resolve_object_strategy
FN:729,_RNvNtNtCseXwexsNt0j5_10ditto_core6object4core24request_with_json_schema
FN:293,_RNvNtNtCseXwexsNt0j5_10ditto_core6object4core25stream_object_from_stream
FN:673,_RNvNtNtCseXwexsNt0j5_10ditto_core6object4core26parse_partial_object_value
FN:849,_RNvNtNtCseXwexsNt0j5_10ditto_core6object4core30extract_object_from_tool_calls
FN:326,_RNvNtNtCseXwexsNt0j5_10ditto_core6object4core37stream_object_from_stream_with_config
FN:337,_RNvNtNtCseXwexsNt0j5_10ditto_core6object4core48stream_object_from_stream_with_config_and_limits
FN:46,_RNvXNtNtCseXwexsNt0j5_10ditto_core6object4coreNtB2_13ObjectOptionsNtNtCs7dTDQl1DYhd_4core7default7Default7default
FN:318,_RNvXs1_NtNtCseXwexsNt0j5_10ditto_core6object4coreNtB5_24StreamObjectBufferLimitsNtNtCs7dTDQl1DYhd_4core7default7Default7default
FN:145,_RINvMs_NtNtCseXwexsNt0j5_10ditto_core6object4coreNtB5_18StreamObjectResult12final_objectpEB9_
FN:222,_RINvYpNtNtNtCseXwexsNt0j5_10ditto_core6object4core22LanguageModelObjectExt15generate_objectpEBa_
FN:238,_RINvYpNtNtNtCseXwexsNt0j5_10ditto_core6object4core22LanguageModelObjectExt20generate_object_withpEBa_
FN:224,_RNCNCINvYpNtNtNtCseXwexsNt0j5_10ditto_core6object4core22LanguageModelObjectExt15generate_objectpE00Be_
FN:242,_RNCNCINvYpNtNtNtCseXwexsNt0j5_10ditto_core6object4core22LanguageModelObjectExt20generate_object_withpE00Be_
FN:255,_RNvYpNtNtNtCseXwexsNt0j5_10ditto_core6object4core22LanguageModelObjectExt13stream_objectB9_
FN:265,_RNvYpNtNtNtCseXwexsNt0j5_10ditto_core6object4core22LanguageModelObjectExt18stream_object_withB9_
FN:160,_RNvYpNtNtNtCseXwexsNt0j5_10ditto_core6object4core22LanguageModelObjectExt20generate_object_jsonB9_
FN:170,_RNvYpNtNtNtCseXwexsNt0j5_10ditto_core6object4core22LanguageModelObjectExt25generate_object_json_withB9_
FNDA:0,_RNCNCNCNvNtNtCseXwexsNt0j5_10ditto_core6object4core48stream_object_from_stream_with_config_and_limitss0_000Bb_
FNDA:0,_RNCNCNCNvNtNtCseXwexsNt0j5_10ditto_core6object4core48stream_object_from_stream_with_config_and_limitss_000Bb_
FNDA:0,_RNCNCNvNtNtCseXwexsNt0j5_10ditto_core6object4core18parse_final_object00B9_
FNDA:0,_RNCNCNvNtNtCseXwexsNt0j5_10ditto_core6object4core48stream_object_from_stream_with_config_and_limitss0_00B9_
FNDA:0,_RNCNCNvNtNtCseXwexsNt0j5_10ditto_core6object4core48stream_object_from_stream_with_config_and_limitss_00B9_
FNDA:0,_RNCNvNtNtCseXwexsNt0j5_10ditto_core6object4core18parse_final_object0B7_
FNDA:0,_RNCNvNtNtCseXwexsNt0j5_10ditto_core6object4core22request_with_tool_call0B7_
FNDA:0,_RNCNvNtNtCseXwexsNt0j5_10ditto_core6object4core30extract_object_from_tool_calls0B7_
FNDA:0,_RNCNvNtNtCseXwexsNt0j5_10ditto_core6object4core48stream_object_from_stream_with_config_and_limits0B7_
FNDA:0,_RNCNvNtNtCseXwexsNt0j5_10ditto_core6object4core48stream_object_from_stream_with_config_and_limitss0_0B7_
FNDA:0,_RNCNvNtNtCseXwexsNt0j5_10ditto_core6object4core48stream_object_from_stream_with_config_and_limitss_0B7_
FNDA:0,_RNvMs_NtNtCseXwexsNt0j5_10ditto_core6object4coreNtB4_18StreamObjectResult10final_json
FNDA:0,_RNvMs_NtNtCseXwexsNt0j5_10ditto_core6object4coreNtB4_18StreamObjectResult12into_streams
FNDA:0,_RNvMs_NtNtCseXwexsNt0j5_10ditto_core6object4coreNtB4_18StreamObjectResult13final_summary
FNDA:0,_RNvMs_NtNtCseXwexsNt0j5_10ditto_core6object4coreNtB4_18StreamObjectResult19into_element_stream
FNDA:0,_RNvMs_NtNtCseXwexsNt0j5_10ditto_core6object4coreNtB4_18StreamObjectResult19into_partial_stream
FNDA:0,_RNvMs_NtNtCseXwexsNt0j5_10ditto_core6object4coreNtB4_18StreamObjectResult6handle
FNDA:0,_RNvMs_NtNtCseXwexsNt0j5_10ditto_core6object4coreNtB4_18StreamObjectResult7is_done
FNDA:0,_RNvNtNtCseXwexsNt0j5_10ditto_core6object4core17schema_for_output
FNDA:0,_RNvNtNtCseXwexsNt0j5_10ditto_core6object4core18parse_final_object
FNDA:0,_RNvNtNtCseXwexsNt0j5_10ditto_core6object4core21ensure_output_matches
FNDA:0,_RNvNtNtCseXwexsNt0j5_10ditto_core6object4core22request_with_tool_call
FNDA:0,_RNvNtNtCseXwexsNt0j5_10ditto_core6object4core23extract_tool_call_value
FNDA:0,_RNvNtNtCseXwexsNt0j5_10ditto_core6object4core23resolve_object_strategy
FNDA:0,_RNvNtNtCseXwexsNt0j5_10ditto_core6object4core24request_with_json_schema
FNDA:0,_RNvNtNtCseXwexsNt0j5_10ditto_core6object4core25stream_object_from_stream
FNDA:0,_RNvNtNtCseXwexsNt0j5_10ditto_core6object4core26parse_partial_object_value
FNDA:0,_RNvNtNtCseXwexsNt0j5_10ditto_core6object4core30extract_object_from_tool_calls
FNDA:0,_RNvNtNtCseXwexsNt0j5_10ditto_core6object4core37stream_object_from_stream_with_config
FNDA:0,_RNvNtNtCseXwexsNt0j5_10ditto_core6object4core48stream_object_from_stream_with_config_and_limits
FNDA:0,_RNvXNtNtCseXwexsNt0j5_10ditto_core6object4coreNtB2_13ObjectOptionsNtNtCs7dTDQl1DYhd_4core7default7Default7default
FNDA:0,_RNvXs1_NtNtCseXwexsNt0j5_10ditto_core6object4coreNtB5_24StreamObjectBufferLimitsNtNtCs7dTDQl1DYhd_4core7default7Default7default
FNDA:0,_RINvMs_NtNtCseXwexsNt0j5_10ditto_core6object4coreNtB5_18StreamObjectResult12final_objectpEB9_
FNDA:0,_RINvYpNtNtNtCseXwexsNt0j5_10ditto_core6object4core22LanguageModelObjectExt15generate_objectpEBa_
FNDA:0,_RINvYpNtNtNtCseXwexsNt0j5_10ditto_core6object4core22LanguageModelObjectExt20generate_object_withpEBa_
FNDA:0,_RNCNCINvYpNtNtNtCseXwexsNt0j5_10ditto_core6object4core22LanguageModelObjectExt15generate_objectpE00Be_
FNDA:0,_RNCNCINvYpNtNtNtCseXwexsNt0j5_10ditto_core6object4core22LanguageModelObjectExt20generate_object_withpE00Be_
FNDA:0,_RNvYpNtNtNtCseXwexsNt0j5_10ditto_core6object4core22LanguageModelObjectExt13stream_objectB9_
FNDA:0,_RNvYpNtNtNtCseXwexsNt0j5_10ditto_core6object4core22LanguageModelObjectExt18stream_object_withB9_
FNDA:0,_RNvYpNtNtNtCseXwexsNt0j5_10ditto_core6object4core22LanguageModelObjectExt20generate_object_jsonB9_
FNDA:0,_RNvYpNtNtNtCseXwexsNt0j5_10ditto_core6object4core22LanguageModelObjectExt25generate_object_json_withB9_
FNF:41
FNH:0
DA:46,0
DA:47,0
DA:48,0
DA:49,0
DA:50,0
DA:51,0
DA:52,0
DA:99,0
DA:100,0
DA:101,0
DA:103,0
DA:104,0
DA:105,0
DA:106,0
DA:107,0
DA:108,0
DA:109,0
DA:110,0
DA:111,0
DA:112,0
DA:114,0
DA:115,0
DA:116,0
DA:117,0
DA:118,0
DA:119,0
DA:120,0
DA:121,0
DA:122,0
DA:123,0
DA:125,0
DA:126,0
DA:127,0
DA:128,0
DA:129,0
DA:130,0
DA:131,0
DA:132,0
DA:133,0
DA:134,0
DA:135,0
DA:137,0
DA:138,0
DA:139,0
DA:141,0
DA:142,0
DA:143,0
DA:145,0
DA:146,0
DA:147,0
DA:149,0
DA:150,0
DA:151,0
DA:160,0
DA:163,0
DA:170,0
DA:216,0
DA:222,0
DA:224,0
DA:225,0
DA:226,0
DA:231,0
DA:238,0
DA:242,0
DA:243,0
DA:244,0
DA:249,0
DA:255,0
DA:258,0
DA:265,0
DA:288,0
DA:293,0
DA:294,0
DA:295,0
DA:296,0
DA:297,0
DA:298,0
DA:299,0
DA:300,0
DA:302,0
DA:318,0
DA:319,0
DA:320,0
DA:321,0
DA:322,0
DA:323,0
DA:326,0
DA:327,0
DA:328,0
DA:329,0
DA:330,0
DA:331,0
DA:332,0
DA:333,0
DA:335,0
DA:337,0
DA:338,0
DA:339,0
DA:340,0
DA:341,0
DA:344,0
DA:345,0
DA:346,0
DA:347,0
DA:348,0
DA:349,0
DA:350,0
DA:352,0
DA:353,0
DA:355,0
DA:356,0
DA:358,0
DA:359,0
DA:361,0
DA:362,0
DA:364,0
DA:365,0
DA:366,0
DA:367,0
DA:368,0
DA:369,0
DA:370,0
DA:371,0
DA:373,0
DA:374,0
DA:375,0
DA:376,0
DA:377,0
DA:378,0
DA:379,0
DA:380,0
DA:381,0
DA:382,0
DA:383,0
DA:387,0
DA:389,0
DA:390,0
DA:391,0
DA:392,0
DA:393,0
DA:394,0
DA:395,0
DA:396,0
DA:398,0
DA:399,0
DA:400,0
DA:401,0
DA:402,0
DA:403,0
DA:404,0
DA:405,0
DA:406,0
DA:408,0
DA:409,0
DA:410,0
DA:411,0
DA:412,0
DA:413,0
DA:414,0
DA:415,0
DA:416,0
DA:417,0
DA:418,0
DA:419,0
DA:420,0
DA:421,0
DA:422,0
DA:423,0
DA:425,0
DA:426,0
DA:427,0
DA:428,0
DA:429,0
DA:430,0
DA:431,0
DA:432,0
DA:433,0
DA:434,0
DA:435,0
DA:436,0
DA:437,0
DA:438,0
DA:439,0
DA:440,0
DA:443,0
DA:444,0
DA:446,0
DA:447,0
DA:448,0
DA:450,0
DA:451,0
DA:452,0
DA:453,0
DA:454,0
DA:455,0
DA:456,0
DA:457,0
DA:458,0
DA:459,0
DA:461,0
DA:462,0
DA:463,0
DA:464,0
DA:465,0
DA:466,0
DA:467,0
DA:468,0
DA:469,0
DA:470,0
DA:471,0
DA:472,0
DA:473,0
DA:474,0
DA:475,0
DA:476,0
DA:477,0
DA:479,0
DA:482,0
DA:483,0
DA:484,0
DA:485,0
DA:486,0
DA:487,0
DA:488,0
DA:489,0
DA:490,0
DA:491,0
DA:492,0
DA:493,0
DA:495,0
DA:496,0
DA:497,0
DA:498,0
DA:499,0
DA:500,0
DA:501,0
DA:502,0
DA:503,0
DA:504,0
DA:505,0
DA:506,0
DA:507,0
DA:509,0
DA:510,0
DA:513,0
DA:514,0
DA:515,0
DA:516,0
DA:517,0
DA:518,0
DA:519,0
DA:520,0
DA:521,0
DA:522,0
DA:523,0
DA:524,0
DA:525,0
DA:527,0
DA:529,0
DA:530,0
DA:531,0
DA:532,0
DA:533,0
DA:534,0
DA:535,0
DA:536,0
DA:537,0
DA:538,0
DA:539,0
DA:540,0
DA:541,0
DA:542,0
DA:543,0
DA:544,0
DA:545,0
DA:546,0
DA:547,0
DA:548,0
DA:553,0
DA:554,0
DA:555,0
DA:557,0
DA:558,0
DA:559,0
DA:560,0
DA:561,0
DA:562,0
DA:563,0
DA:564,0
DA:565,0
DA:566,0
DA:567,0
DA:570,0
DA:571,0
DA:572,0
DA:573,0
DA:574,0
DA:575,0
DA:578,0
DA:579,0
DA:580,0
DA:581,0
DA:582,0
DA:583,0
DA:585,0
DA:586,0
DA:587,0
DA:589,0
DA:590,0
DA:591,0
DA:592,0
DA:594,0
DA:595,0
DA:596,0
DA:597,0
DA:598,0
DA:599,0
DA:600,0
DA:601,0
DA:602,0
DA:603,0
DA:604,0
DA:607,0
DA:608,0
DA:609,0
DA:610,0
DA:611,0
DA:612,0
DA:613,0
DA:614,0
DA:615,0
DA:616,0
DA:617,0
DA:618,0
DA:620,0
DA:622,0
DA:623,0
DA:624,0
DA:625,0
DA:626,0
DA:627,0
DA:628,0
DA:629,0
DA:630,0
DA:631,0
DA:632,0
DA:633,0
DA:634,0
DA:635,0
DA:636,0
DA:637,0
DA:638,0
DA:639,0
DA:642,0
DA:644,0
DA:646,0
DA:647,0
DA:648,0
DA:649,0
DA:650,0
DA:651,0
DA:653,0
DA:655,0
DA:656,0
DA:657,0
DA:658,0
DA:659,0
DA:660,0
DA:662,0
DA:664,0
DA:665,0
DA:666,0
DA:667,0
DA:668,0
DA:669,0
DA:670,0
DA:671,0
DA:673,0
DA:674,0
DA:675,0
DA:676,0
DA:677,0
DA:679,0
DA:680,0
DA:681,0
DA:683,0
DA:686,0
DA:688,0
DA:690,0
DA:691,0
DA:692,0
DA:693,0
DA:694,0
DA:695,0
DA:697,0
DA:699,0
DA:700,0
DA:701,0
DA:702,0
DA:703,0
DA:704,0
DA:705,0
DA:706,0
DA:707,0
DA:709,0
DA:710,0
DA:711,0
DA:712,0
DA:713,0
DA:717,0
DA:718,0
DA:719,0
DA:720,0
DA:721,0
DA:725,0
DA:726,0
DA:727,0
DA:729,0
DA:730,0
DA:731,0
DA:732,0
DA:733,0
DA:734,0
DA:735,0
DA:736,0
DA:737,0
DA:738,0
DA:739,0
DA:740,0
DA:742,0
DA:744,0
DA:745,0
DA:747,0
DA:748,0
DA:749,0
DA:750,0
DA:752,0
DA:755,0
DA:757,0
DA:759,0
DA:760,0
DA:761,0
DA:762,0
DA:763,0
DA:764,0
DA:765,0
DA:766,0
DA:767,0
DA:768,0
DA:769,0
DA:770,0
DA:772,0
DA:773,0
DA:774,0
DA:775,0
DA:777,0
DA:778,0
DA:779,0
DA:780,0
DA:782,0
DA:783,0
DA:784,0
DA:785,0
DA:786,0
DA:787,0
DA:788,0
DA:790,0
DA:791,0
DA:792,0
DA:795,0
DA:797,0
DA:798,0
DA:799,0
DA:800,0
DA:801,0
DA:802,0
DA:803,0
DA:804,0
DA:805,0
DA:806,0
DA:807,0
DA:808,0
DA:809,0
DA:810,0
DA:811,0
DA:812,0
DA:813,0
DA:815,0
DA:816,0
DA:817,0
DA:818,0
DA:819,0
DA:820,0
DA:821,0
DA:822,0
DA:823,0
DA:824,0
DA:825,0
DA:826,0
DA:827,0
DA:829,0
DA:830,0
DA:831,0
DA:832,0
DA:833,0
DA:834,0
DA:835,0
DA:836,0
DA:837,0
DA:838,0
DA:839,0
DA:840,0
DA:842,0
DA:843,0
DA:844,0
DA:846,0
DA:847,0
DA:849,0
DA:850,0
DA:851,0
DA:852,0
DA:853,0
DA:854,0
DA:855,0
DA:857,0
DA:858,0
DA:860,0
DA:862,0
DA:863,0
DA:864,0
DA:866,0
DA:867,0
DA:868,0
DA:869,0
DA:870,0
DA:872,0
DA:873,0
DA:874,0
DA:875,0
DA:876,0
DA:877,0
DA:878,0
DA:879,0
DA:880,0
DA:883,0
DA:886,0
DA:887,0
DA:889,0
DA:890,0
DA:891,0
DA:892,0
DA:893,0
DA:894,0
DA:898,0
DA:899,0
DA:902,0
DA:903,0
BRF:0
BRH:0
LF:567
LH:0
end_of_record
SF:/root/autodl-tmp/zjj/p/ditto-llm/crates/ditto-core/src/object/handle.rs
FN:32,_RINvMNtNtCseXwexsNt0j5_10ditto_core6object6handleNtB3_18StreamObjectHandle12final_objectpEB7_
FN:34,_RNCINvMNtNtCseXwexsNt0j5_10ditto_core6object6handleNtB5_18StreamObjectHandle12final_objectpE0B9_
FN:35,_RNCNCINvMNtNtCseXwexsNt0j5_10ditto_core6object6handleNtB7_18StreamObjectHandle12final_objectpE00Bb_
FN:20,_RNCNvMNtNtCseXwexsNt0j5_10ditto_core6object6handleNtB4_18StreamObjectHandle10final_json0B8_
FN:45,_RNCNvMNtNtCseXwexsNt0j5_10ditto_core6object6handleNtB4_18StreamObjectHandle13final_summary0B8_
FN:16,_RNCNvMNtNtCseXwexsNt0j5_10ditto_core6object6handleNtB4_18StreamObjectHandle7is_done0B8_
FN:19,_RNvMNtNtCseXwexsNt0j5_10ditto_core6object6handleNtB2_18StreamObjectHandle10final_json
FN:44,_RNvMNtNtCseXwexsNt0j5_10ditto_core6object6handleNtB2_18StreamObjectHandle13final_summary
FN:15,_RNvMNtNtCseXwexsNt0j5_10ditto_core6object6handleNtB2_18StreamObjectHandle7is_done
FNDA:0,_RINvMNtNtCseXwexsNt0j5_10ditto_core6object6handleNtB3_18StreamObjectHandle12final_objectpEB7_
FNDA:0,_RNCINvMNtNtCseXwexsNt0j5_10ditto_core6object6handleNtB5_18StreamObjectHandle12final_objectpE0B9_
FNDA:0,_RNCNCINvMNtNtCseXwexsNt0j5_10ditto_core6object6handleNtB7_18StreamObjectHandle12final_objectpE00Bb_
FNDA:0,_RNCNvMNtNtCseXwexsNt0j5_10ditto_core6object6handleNtB4_18StreamObjectHandle10final_json0B8_
FNDA:0,_RNCNvMNtNtCseXwexsNt0j5_10ditto_core6object6handleNtB4_18StreamObjectHandle13final_summary0B8_
FNDA:0,_RNCNvMNtNtCseXwexsNt0j5_10ditto_core6object6handleNtB4_18StreamObjectHandle7is_done0B8_
FNDA:0,_RNvMNtNtCseXwexsNt0j5_10ditto_core6object6handleNtB2_18StreamObjectHandle10final_json
FNDA:0,_RNvMNtNtCseXwexsNt0j5_10ditto_core6object6handleNtB2_18StreamObjectHandle13final_summary
FNDA:0,_RNvMNtNtCseXwexsNt0j5_10ditto_core6object6handleNtB2_18StreamObjectHandle7is_done
FNF:9
FNH:0
DA:15,0
DA:16,0
DA:17,0
DA:19,0
DA:20,0
DA:21,0
DA:22,0
DA:23,0
DA:24,0
DA:25,0
DA:26,0
DA:27,0
DA:28,0
DA:29,0
DA:30,0
DA:32,0
DA:33,0
DA:34,0
DA:35,0
DA:36,0
DA:37,0
DA:38,0
DA:39,0
DA:40,0
DA:41,0
DA:42,0
DA:44,0
DA:45,0
DA:46,0
DA:47,0
DA:48,0
DA:49,0
DA:50,0
DA:51,0
DA:52,0
DA:53,0
DA:54,0
DA:55,0
DA:57,0
DA:58,0
DA:59,0
DA:60,0
DA:61,0
DA:62,0
DA:63,0
DA:64,0
DA:65,0
DA:66,0
BRF:0
BRH:0
LF:55
LH:0
end_of_record
SF:/root/autodl-tmp/zjj/p/ditto-llm/crates/ditto-core/src/object/json.rs
FN:51,_RNCNvNtNtCseXwexsNt0j5_10ditto_core6object4json18extract_code_fence0B7_
FN:103,_RNCNvNtNtCseXwexsNt0j5_10ditto_core6object4json21extract_balanced_json0B7_
FN:48,_RNvNtNtCseXwexsNt0j5_10ditto_core6object4json18extract_code_fence
FN:106,_RNvNtNtCseXwexsNt0j5_10ditto_core6object4json18parse_partial_json
FN:65,_RNvNtNtCseXwexsNt0j5_10ditto_core6object4json21extract_balanced_json
FN:6,_RNvNtNtCseXwexsNt0j5_10ditto_core6object4json29parse_json_from_response_text
FNDA:0,_RNCNvNtNtCseXwexsNt0j5_10ditto_core6object4json18extract_code_fence0B7_
FNDA:0,_RNCNvNtNtCseXwexsNt0j5_10ditto_core6object4json21extract_balanced_json0B7_
FNDA:0,_RNvNtNtCseXwexsNt0j5_10ditto_core6object4json18extract_code_fence
FNDA:0,_RNvNtNtCseXwexsNt0j5_10ditto_core6object4json18parse_partial_json
FNDA:0,_RNvNtNtCseXwexsNt0j5_10ditto_core6object4json21extract_balanced_json
FNDA:0,_RNvNtNtCseXwexsNt0j5_10ditto_core6object4json29parse_json_from_response_text
FNF:6
FNH:0
DA:6,0
DA:7,0
DA:8,0
DA:9,0
DA:10,0
DA:11,0
DA:12,0
DA:14,0
DA:15,0
DA:16,0
DA:18,0
DA:19,0
DA:20,0
DA:21,0
DA:22,0
DA:23,0
DA:24,0
DA:25,0
DA:26,0
DA:27,0
DA:28,0
DA:30,0
DA:31,0
DA:32,0
DA:33,0
DA:34,0
DA:35,0
DA:36,0
DA:37,0
DA:38,0
DA:39,0
DA:40,0
DA:42,0
DA:43,0
DA:44,0
DA:45,0
DA:46,0
DA:48,0
DA:49,0
DA:50,0
DA:51,0
DA:52,0
DA:54,0
DA:55,0
DA:56,0
DA:57,0
DA:58,0
DA:59,0
DA:61,0
DA:63,0
DA:65,0
DA:66,0
DA:67,0
DA:68,0
DA:69,0
DA:70,0
DA:71,0
DA:73,0
DA:74,0
DA:75,0
DA:76,0
DA:77,0
DA:78,0
DA:79,0
DA:80,0
DA:81,0
DA:82,0
DA:84,0
DA:85,0
DA:87,0
DA:88,0
DA:89,0
DA:90,0
DA:92,0
DA:93,0
DA:94,0
DA:95,0
DA:96,0
DA:97,0
DA:99,0
DA:103,0
DA:104,0
DA:106,0
DA:107,0
DA:108,0
DA:109,0
DA:110,0
DA:111,0
DA:112,0
DA:114,0
DA:115,0
DA:116,0
DA:117,0
DA:118,0
DA:119,0
DA:120,0
DA:121,0
DA:122,0
DA:123,0
DA:125,0
DA:126,0
DA:128,0
DA:129,0
DA:130,0
DA:131,0
DA:133,0
DA:134,0
DA:135,0
DA:136,0
DA:137,0
DA:138,0
DA:140,0
DA:144,0
DA:145,0
DA:146,0
DA:148,0
DA:149,0
DA:150,0
DA:152,0
DA:155,0
DA:156,0
DA:157,0
DA:159,0
DA:160,0
DA:161,0
DA:162,0
DA:163,0
DA:166,0
DA:167,0
DA:168,0
DA:170,0
DA:171,0
BRF:0
BRH:0
LF:134
LH:0
end_of_record
SF:/root/autodl-tmp/zjj/p/ditto-llm/crates/ditto-core/src/provider_options/core.rs
FN:61,_RNCNvMNtNtCseXwexsNt0j5_10ditto_core16provider_options4coreNtB4_15ProviderOptions10from_value0B8_
FN:59,_RNvMNtNtCseXwexsNt0j5_10ditto_core16provider_options4coreNtB2_15ProviderOptions10from_value
FN:64,_RNvMNtNtCseXwexsNt0j5_10ditto_core16provider_options4coreNtB2_15ProviderOptions14from_value_ref
FNDA:0,_RNCNvMNtNtCseXwexsNt0j5_10ditto_core16provider_options4coreNtB4_15ProviderOptions10from_value0B8_
FNDA:0,_RNvMNtNtCseXwexsNt0j5_10ditto_core16provider_options4coreNtB2_15ProviderOptions10from_value
FNDA:0,_RNvMNtNtCseXwexsNt0j5_10ditto_core16provider_options4coreNtB2_15ProviderOptions14from_value_ref
FNF:3
FNH:0
DA:59,0
DA:60,0
DA:61,0
DA:62,0
DA:64,0
DA:65,0
DA:66,0
BRF:0
BRH:0
LF:8
LH:0
end_of_record
SF:/root/autodl-tmp/zjj/p/ditto-llm/crates/ditto-core/src/provider_options/envelope.rs
FN:145,_RINvNtNtCseXwexsNt0j5_10ditto_core16provider_options8envelope23select_provider_optionsNtB2_23ProviderOptionsEnvelopeEB6_
FN:181,_RINvNtNtCseXwexsNt0j5_10ditto_core16provider_options8envelope29select_provider_options_valueNtB2_23ProviderOptionsEnvelopeEB6_
FN:161,_RNCINvNtNtCseXwexsNt0j5_10ditto_core16provider_options8envelope23select_provider_optionsNtB4_23ProviderOptionsEnvelopeE0B8_
FN:77,_RNCNvMNtNtCseXwexsNt0j5_10ditto_core16provider_options8envelopeNtB4_23ProviderOptionsEnvelope34merge_response_format_for_provider0B8_
FN:142,_RNCNvNtNtCseXwexsNt0j5_10ditto_core16provider_options8envelope35provider_options_object_is_bucketed0B7_
FN:31,_RNvMNtNtCseXwexsNt0j5_10ditto_core16provider_options8envelopeNtB2_23ProviderOptionsEnvelope10into_value
FN:23,_RNvMNtNtCseXwexsNt0j5_10ditto_core16provider_options8envelopeNtB2_23ProviderOptionsEnvelope12from_options
FN:35,_RNvMNtNtCseXwexsNt0j5_10ditto_core16provider_options8envelopeNtB2_23ProviderOptionsEnvelope20provider_options_for
FN:48,_RNvMNtNtCseXwexsNt0j5_10ditto_core16provider_options8envelopeNtB2_23ProviderOptionsEnvelope23parsed_provider_options
FN:39,_RNvMNtNtCseXwexsNt0j5_10ditto_core16provider_options8envelopeNtB2_23ProviderOptionsEnvelope26provider_options_value_for
FN:43,_RNvMNtNtCseXwexsNt0j5_10ditto_core16provider_options8envelopeNtB2_23ProviderOptionsEnvelope27parsed_provider_options_for
FN:61,_RNvMNtNtCseXwexsNt0j5_10ditto_core16provider_options8envelopeNtB2_23ProviderOptionsEnvelope34merge_response_format_for_provider
FN:27,_RNvMNtNtCseXwexsNt0j5_10ditto_core16provider_options8envelopeNtB2_23ProviderOptionsEnvelope8as_value
FN:173,_RNvNtNtCseXwexsNt0j5_10ditto_core16provider_options8envelope25provider_bucket_alias_key
FN:256,_RNvNtNtCseXwexsNt0j5_10ditto_core16provider_options8envelope32merge_provider_options_into_body
FN:140,_RNvNtNtCseXwexsNt0j5_10ditto_core16provider_options8envelope35provider_options_object_is_bucketed
FN:107,_RNvXs0_NtNtCseXwexsNt0j5_10ditto_core16provider_options8envelopeNtB5_23ProviderOptionsEnvelopeINtNtCs7dTDQl1DYhd_4core7convert4FromNtNtCs9n3C8VT7UCf_10serde_json5value5ValueE4from
FN:123,_RNvXs2_NtNtCseXwexsNt0j5_10ditto_core16provider_options8envelopeNtB5_23ProviderOptionsEnvelopeNtB5_21ProviderOptionsSource22provider_options_value
FN:101,_RNvXs_NtNtCseXwexsNt0j5_10ditto_core16provider_options8envelopeNtB4_23ProviderOptionsEnvelopeINtNtCs7dTDQl1DYhd_4core7convert5AsRefNtNtCs9n3C8VT7UCf_10serde_json5value5ValueE6as_ref
FN:117,_RNvXs1_NtNtCseXwexsNt0j5_10ditto_core16provider_options8envelopeNtNtCs9n3C8VT7UCf_10serde_json5value5ValueNtB5_21ProviderOptionsSource22provider_options_value
FNDA:0,_RINvNtNtCseXwexsNt0j5_10ditto_core16provider_options8envelope23select_provider_optionsNtB2_23ProviderOptionsEnvelopeEB6_
FNDA:0,_RINvNtNtCseXwexsNt0j5_10ditto_core16provider_options8envelope29select_provider_options_valueNtB2_23ProviderOptionsEnvelopeEB6_
FNDA:0,_RNCINvNtNtCseXwexsNt0j5_10ditto_core16provider_options8envelope23select_provider_optionsNtB4_23ProviderOptionsEnvelopeE0B8_
FNDA:0,_RNCNvMNtNtCseXwexsNt0j5_10ditto_core16provider_options8envelopeNtB4_23ProviderOptionsEnvelope34merge_response_format_for_provider0B8_
FNDA:0,_RNCNvNtNtCseXwexsNt0j5_10ditto_core16provider_options8envelope35provider_options_object_is_bucketed0B7_
FNDA:0,_RNvMNtNtCseXwexsNt0j5_10ditto_core16provider_options8envelopeNtB2_23ProviderOptionsEnvelope10into_value
FNDA:0,_RNvMNtNtCseXwexsNt0j5_10ditto_core16provider_options8envelopeNtB2_23ProviderOptionsEnvelope12from_options
FNDA:0,_RNvMNtNtCseXwexsNt0j5_10ditto_core16provider_options8envelopeNtB2_23ProviderOptionsEnvelope20provider_options_for
FNDA:0,_RNvMNtNtCseXwexsNt0j5_10ditto_core16provider_options8envelopeNtB2_23ProviderOptionsEnvelope23parsed_provider_options
FNDA:0,_RNvMNtNtCseXwexsNt0j5_10ditto_core16provider_options8envelopeNtB2_23ProviderOptionsEnvelope26provider_options_value_for
FNDA:0,_RNvMNtNtCseXwexsNt0j5_10ditto_core16provider_options8envelopeNtB2_23ProviderOptionsEnvelope27parsed_provider_options_for
FNDA:0,_RNvMNtNtCseXwexsNt0j5_10ditto_core16provider_options8envelopeNtB2_23ProviderOptionsEnvelope34merge_response_format_for_provider
FNDA:0,_RNvMNtNtCseXwexsNt0j5_10ditto_core16provider_options8envelopeNtB2_23ProviderOptionsEnvelope8as_value
FNDA:0,_RNvNtNtCseXwexsNt0j5_10ditto_core16provider_options8envelope25provider_bucket_alias_key
FNDA:0,_RNvNtNtCseXwexsNt0j5_10ditto_core16provider_options8envelope32merge_provider_options_into_body
FNDA:0,_RNvNtNtCseXwexsNt0j5_10ditto_core16provider_options8envelope35provider_options_object_is_bucketed
FNDA:0,_RNvXs0_NtNtCseXwexsNt0j5_10ditto_core16provider_options8envelopeNtB5_23ProviderOptionsEnvelopeINtNtCs7dTDQl1DYhd_4core7convert4FromNtNtCs9n3C8VT7UCf_10serde_json5value5ValueE4from
FNDA:0,_RNvXs2_NtNtCseXwexsNt0j5_10ditto_core16provider_options8envelopeNtB5_23ProviderOptionsEnvelopeNtB5_21ProviderOptionsSource22provider_options_value
FNDA:0,_RNvXs_NtNtCseXwexsNt0j5_10ditto_core16provider_options8envelopeNtB4_23ProviderOptionsEnvelopeINtNtCs7dTDQl1DYhd_4core7convert5AsRefNtNtCs9n3C8VT7UCf_10serde_json5value5ValueE6as_ref
FNDA:0,_RNvXs1_NtNtCseXwexsNt0j5_10ditto_core16provider_options8envelopeNtNtCs9n3C8VT7UCf_10serde_json5value5ValueNtB5_21ProviderOptionsSource22provider_options_value
FNF:20
FNH:0
DA:23,0
DA:24,0
DA:25,0
DA:27,0
DA:28,0
DA:29,0
DA:31,0
DA:32,0
DA:33,0
DA:35,0
DA:36,0
DA:37,0
DA:39,0
DA:40,0
DA:41,0
DA:43,0
DA:44,0
DA:45,0
DA:46,0
DA:48,0
DA:49,0
DA:50,0
DA:51,0
DA:52,0
DA:53,0
DA:55,0
DA:56,0
DA:58,0
DA:59,0
DA:61,0
DA:62,0
DA:63,0
DA:64,0
DA:65,0
DA:66,0
DA:67,0
DA:69,0
DA:70,0
DA:71,0
DA:73,0
DA:74,0
DA:75,0
DA:76,0
DA:77,0
DA:78,0
DA:79,0
DA:80,0
DA:81,0
DA:83,0
DA:84,0
DA:86,0
DA:87,0
DA:91,0
DA:92,0
DA:93,0
DA:96,0
DA:97,0
DA:101,0
DA:102,0
DA:103,0
DA:107,0
DA:108,0
DA:109,0
DA:117,0
DA:118,0
DA:119,0
DA:123,0
DA:124,0
DA:125,0
DA:140,0
DA:141,0
DA:142,0
DA:143,0
DA:145,0
DA:146,0
DA:147,0
DA:148,0
DA:149,0
DA:150,0
DA:152,0
DA:153,0
DA:154,0
DA:157,0
DA:158,0
DA:159,0
DA:160,0
DA:161,0
DA:162,0
DA:163,0
DA:164,0
DA:165,0
DA:166,0
DA:167,0
DA:168,0
DA:170,0
DA:171,0
DA:173,0
DA:174,0
DA:175,0
DA:176,0
DA:177,0
DA:179,0
DA:181,0
DA:182,0
DA:183,0
DA:184,0
DA:185,0
DA:186,0
DA:188,0
DA:189,0
DA:191,0
DA:193,0
DA:194,0
DA:197,0
DA:198,0
DA:199,0
DA:201,0
DA:202,0
DA:204,0
DA:205,0
DA:206,0
DA:207,0
DA:208,0
DA:210,0
DA:211,0
DA:212,0
DA:213,0
DA:214,0
DA:216,0
DA:217,0
DA:218,0
DA:219,0
DA:220,0
DA:222,0
DA:223,0
DA:224,0
DA:225,0
DA:226,0
DA:227,0
DA:229,0
DA:230,0
DA:231,0
DA:232,0
DA:234,0
DA:235,0
DA:236,0
DA:237,0
DA:238,0
DA:240,0
DA:241,0
DA:242,0
DA:244,0
DA:245,0
DA:256,0
DA:257,0
DA:258,0
DA:259,0
DA:260,0
DA:261,0
DA:262,0
DA:263,0
DA:264,0
DA:266,0
DA:267,0
DA:268,0
DA:269,0
DA:270,0
DA:271,0
DA:274,0
DA:275,0
DA:276,0
DA:277,0
DA:279,0
DA:280,0
DA:281,0
DA:282,0
DA:283,0
DA:284,0
DA:285,0
DA:286,0
DA:287,0
DA:288,0
DA:289,0
DA:290,0
DA:291,0
DA:292,0
DA:295,0
DA:296,0
DA:297,0
DA:298,0
DA:300,0
DA:301,0
DA:303,0
DA:305,0
BRF:0
BRH:0
LF:197
LH:0
end_of_record
SF:/root/autodl-tmp/zjj/p/ditto-llm/crates/ditto-core/src/provider_options/request.rs
FN:44,_RNCNvNtNtCseXwexsNt0j5_10ditto_core16provider_options7request28request_provider_options_for0B7_
FN:37,_RNvNtNtCseXwexsNt0j5_10ditto_core16provider_options7request28request_provider_options_for
FN:16,_RNvNtNtCseXwexsNt0j5_10ditto_core16provider_options7request29request_with_provider_options
FN:67,_RNvNtNtCseXwexsNt0j5_10ditto_core16provider_options7request31request_parsed_provider_options
FN:47,_RNvNtNtCseXwexsNt0j5_10ditto_core16provider_options7request34request_provider_options_value_for
FN:57,_RNvNtNtCseXwexsNt0j5_10ditto_core16provider_options7request35request_parsed_provider_options_for
FN:24,_RNvNtNtCseXwexsNt0j5_10ditto_core16provider_options7request37request_with_provider_response_format
FNDA:0,_RNCNvNtNtCseXwexsNt0j5_10ditto_core16provider_options7request28request_provider_options_for0B7_
FNDA:0,_RNvNtNtCseXwexsNt0j5_10ditto_core16provider_options7request28request_provider_options_for
FNDA:0,_RNvNtNtCseXwexsNt0j5_10ditto_core16provider_options7request29request_with_provider_options
FNDA:0,_RNvNtNtCseXwexsNt0j5_10ditto_core16provider_options7request31request_parsed_provider_options
FNDA:0,_RNvNtNtCseXwexsNt0j5_10ditto_core16provider_options7request34request_provider_options_value_for
FNDA:0,_RNvNtNtCseXwexsNt0j5_10ditto_core16provider_options7request35request_parsed_provider_options_for
FNDA:0,_RNvNtNtCseXwexsNt0j5_10ditto_core16provider_options7request37request_with_provider_response_format
FNF:7
FNH:0
DA:16,0
DA:17,0
DA:18,0
DA:19,0
DA:20,0
DA:21,0
DA:22,0
DA:24,0
DA:25,0
DA:26,0
DA:27,0
DA:28,0
DA:29,0
DA:30,0
DA:31,0
DA:32,0
DA:33,0
DA:34,0
DA:35,0
DA:37,0
DA:38,0
DA:39,0
DA:40,0
DA:41,0
DA:42,0
DA:43,0
DA:44,0
DA:45,0
DA:47,0
DA:48,0
DA:49,0
DA:50,0
DA:51,0
DA:52,0
DA:53,0
DA:55,0
DA:57,0
DA:58,0
DA:59,0
DA:60,0
DA:61,0
DA:62,0
DA:63,0
DA:65,0
DA:67,0
DA:68,0
DA:69,0
DA:70,0
DA:71,0
DA:72,0
DA:74,0
BRF:0
BRH:0
LF:52
LH:0
end_of_record
SF:/root/autodl-tmp/zjj/p/ditto-llm/crates/ditto-core/src/provider_transport/config.rs
FN:71,_RNCNvNtNtCseXwexsNt0j5_10ditto_core18provider_transport6config19default_http_client0B7_
FN:29,_RNCNvNtNtCseXwexsNt0j5_10ditto_core18provider_transport6config21header_map_from_pairs0B7_
FN:33,_RNCNvNtNtCseXwexsNt0j5_10ditto_core18provider_transport6config21header_map_from_pairss_0B7_
FN:119,_RNCNvNtNtCseXwexsNt0j5_10ditto_core18provider_transport6config40resolve_http_provider_config_with_policy0B7_
FN:113,_RNCNvNvNtNtCseXwexsNt0j5_10ditto_core18provider_transport6config40resolve_http_provider_config_with_policy5clean0B9_
FN:69,_RNvNtNtCseXwexsNt0j5_10ditto_core18provider_transport6config19default_http_client
FN:22,_RNvNtNtCseXwexsNt0j5_10ditto_core18provider_transport6config21header_map_from_pairs
FN:144,_RNvNtNtCseXwexsNt0j5_10ditto_core18provider_transport6config23apply_http_query_params
FN:132,_RNvNtNtCseXwexsNt0j5_10ditto_core18provider_transport6config28resolve_http_provider_config
FN:44,_RNvNtNtCseXwexsNt0j5_10ditto_core18provider_transport6config29build_http_client_with_policy
FN:105,_RNvNtNtCseXwexsNt0j5_10ditto_core18provider_transport6config40resolve_http_provider_config_with_policy
FN:110,_RNvNvNtNtCseXwexsNt0j5_10ditto_core18provider_transport6config40resolve_http_provider_config_with_policy5clean
FNDA:0,_RNCNvNtNtCseXwexsNt0j5_10ditto_core18provider_transport6config19default_http_client0B7_
FNDA:0,_RNCNvNtNtCseXwexsNt0j5_10ditto_core18provider_transport6config21header_map_from_pairs0B7_
FNDA:0,_RNCNvNtNtCseXwexsNt0j5_10ditto_core18provider_transport6config21header_map_from_pairss_0B7_
FNDA:0,_RNCNvNtNtCseXwexsNt0j5_10ditto_core18provider_transport6config40resolve_http_provider_config_with_policy0B7_
FNDA:0,_RNCNvNvNtNtCseXwexsNt0j5_10ditto_core18provider_transport6config40resolve_http_provider_config_with_policy5clean0B9_
FNDA:0,_RNvNtNtCseXwexsNt0j5_10ditto_core18provider_transport6config19default_http_client
FNDA:0,_RNvNtNtCseXwexsNt0j5_10ditto_core18provider_transport6config21header_map_from_pairs
FNDA:0,_RNvNtNtCseXwexsNt0j5_10ditto_core18provider_transport6config23apply_http_query_params
FNDA:0,_RNvNtNtCseXwexsNt0j5_10ditto_core18provider_transport6config28resolve_http_provider_config
FNDA:0,_RNvNtNtCseXwexsNt0j5_10ditto_core18provider_transport6config29build_http_client_with_policy
FNDA:0,_RNvNtNtCseXwexsNt0j5_10ditto_core18provider_transport6config40resolve_http_provider_config_with_policy
FNDA:0,_RNvNvNtNtCseXwexsNt0j5_10ditto_core18provider_transport6config40resolve_http_provider_config_with_policy5clean
FNF:12
FNH:0
DA:22,0
DA:23,0
DA:24,0
DA:25,0
DA:26,0
DA:27,0
DA:28,0
DA:29,0
DA:30,0
DA:31,0
DA:33,0
DA:34,0
DA:35,0
DA:36,0
DA:37,0
DA:39,0
DA:41,0
DA:42,0
DA:44,0
DA:45,0
DA:46,0
DA:47,0
DA:48,0
DA:49,0
DA:50,0
DA:51,0
DA:52,0
DA:53,0
DA:69,0
DA:70,0
DA:71,0
DA:72,0
DA:105,0
DA:106,0
DA:107,0
DA:108,0
DA:109,0
DA:110,0
DA:111,0
DA:112,0
DA:113,0
DA:114,0
DA:115,0
DA:118,0
DA:119,0
DA:127,0
DA:128,0
DA:130,0
DA:132,0
DA:133,0
DA:134,0
DA:135,0
DA:136,0
DA:137,0
DA:138,0
DA:139,0
DA:140,0
DA:142,0
DA:144,0
DA:145,0
DA:146,0
DA:147,0
DA:148,0
DA:149,0
DA:150,0
DA:151,0
DA:152,0
DA:153,0
DA:155,0
DA:156,0
BRF:0
BRH:0
LF:77
LH:0
end_of_record
SF:/root/autodl-tmp/zjj/p/ditto-llm/crates/ditto-core/src/provider_transport/http.rs
FN:112,_RINvNtNtCseXwexsNt0j5_10ditto_core18provider_transport4http17send_checked_jsonNtNCNvNtNtB6_9providers11openai_like10list_files017FilesListResponseEB6_
FN:112,_RINvNtNtCseXwexsNt0j5_10ditto_core18provider_transport4http17send_checked_jsonNtNCNvNtNtB6_9providers11openai_like24upload_file_with_purpose019FilesUploadResponseEB6_
FN:112,_RINvNtNtCseXwexsNt0j5_10ditto_core18provider_transport4http17send_checked_jsonNtNtNtB6_12capabilities4file10FileObjectEB6_
FN:112,_RINvNtNtCseXwexsNt0j5_10ditto_core18provider_transport4http17send_checked_jsonNtNtNtB6_12capabilities4file18FileDeleteResponseEB6_
FN:112,_RINvNtNtCseXwexsNt0j5_10ditto_core18provider_transport4http17send_checked_jsonNtNtNtB6_9providers17openai_compatible23ChatCompletionsResponseEB6_
FN:118,_RINvNtNtCseXwexsNt0j5_10ditto_core18provider_transport4http29send_checked_json_with_policyNtNCNvNtNtB6_9providers11openai_like10list_files017FilesListResponseEB6_
FN:118,_RINvNtNtCseXwexsNt0j5_10ditto_core18provider_transport4http29send_checked_json_with_policyNtNCNvNtNtB6_9providers11openai_like24upload_file_with_purpose019FilesUploadResponseEB6_
FN:118,_RINvNtNtCseXwexsNt0j5_10ditto_core18provider_transport4http29send_checked_json_with_policyNtNtNtB6_12capabilities4file10FileObjectEB6_
FN:118,_RINvNtNtCseXwexsNt0j5_10ditto_core18provider_transport4http29send_checked_json_with_policyNtNtNtB6_12capabilities4file18FileDeleteResponseEB6_
FN:118,_RINvNtNtCseXwexsNt0j5_10ditto_core18provider_transport4http29send_checked_json_with_policyNtNtNtB6_9providers17openai_compatible23ChatCompletionsResponseEB6_
FN:114,_RNCINvNtNtCseXwexsNt0j5_10ditto_core18provider_transport4http17send_checked_jsonNtNCNvNtNtB8_9providers11openai_like10list_files017FilesListResponseE0B8_
FN:114,_RNCINvNtNtCseXwexsNt0j5_10ditto_core18provider_transport4http17send_checked_jsonNtNCNvNtNtB8_9providers11openai_like24upload_file_with_purpose019FilesUploadResponseE0B8_
FN:114,_RNCINvNtNtCseXwexsNt0j5_10ditto_core18provider_transport4http17send_checked_jsonNtNtNtB8_12capabilities4file10FileObjectE0B8_
FN:114,_RNCINvNtNtCseXwexsNt0j5_10ditto_core18provider_transport4http17send_checked_jsonNtNtNtB8_12capabilities4file18FileDeleteResponseE0B8_
FN:114,_RNCINvNtNtCseXwexsNt0j5_10ditto_core18provider_transport4http17send_checked_jsonNtNtNtB8_9providers17openai_compatible23ChatCompletionsResponseE0B8_
FN:121,_RNCINvNtNtCseXwexsNt0j5_10ditto_core18provider_transport4http29send_checked_json_with_policyNtNCNvNtNtB8_9providers11openai_like10list_files017FilesListResponseE0B8_
FN:121,_RNCINvNtNtCseXwexsNt0j5_10ditto_core18provider_transport4http29send_checked_json_with_policyNtNCNvNtNtB8_9providers11openai_like24upload_file_with_purpose019FilesUploadResponseE0B8_
FN:121,_RNCINvNtNtCseXwexsNt0j5_10ditto_core18provider_transport4http29send_checked_json_with_policyNtNtNtB8_12capabilities4file10FileObjectE0B8_
FN:121,_RNCINvNtNtCseXwexsNt0j5_10ditto_core18provider_transport4http29send_checked_json_with_policyNtNtNtB8_12capabilities4file18FileDeleteResponseE0B8_
FN:121,_RNCINvNtNtCseXwexsNt0j5_10ditto_core18provider_transport4http29send_checked_json_with_policyNtNtNtB8_9providers17openai_compatible23ChatCompletionsResponseE0B8_
FN:35,_RNCNCNvNtNtCseXwexsNt0j5_10ditto_core18provider_transport4http24response_bytes_truncated00B9_
FN:36,_RNCNCNvNtNtCseXwexsNt0j5_10ditto_core18provider_transport4http24response_bytes_truncated0s_0B9_
FN:70,_RNCNCNvNtNtCseXwexsNt0j5_10ditto_core18provider_transport4http51read_reqwest_body_bytes_bounded_with_content_length00B9_
FN:72,_RNCNCNvNtNtCseXwexsNt0j5_10ditto_core18provider_transport4http51read_reqwest_body_bytes_bounded_with_content_length0s0_0B9_
FN:79,_RNCNCNvNtNtCseXwexsNt0j5_10ditto_core18provider_transport4http51read_reqwest_body_bytes_bounded_with_content_length0s1_0B9_
FN:71,_RNCNCNvNtNtCseXwexsNt0j5_10ditto_core18provider_transport4http51read_reqwest_body_bytes_bounded_with_content_length0s_0B9_
FN:95,_RNCNvNtNtCseXwexsNt0j5_10ditto_core18provider_transport4http12send_checked0B7_
FN:13,_RNCNvNtNtCseXwexsNt0j5_10ditto_core18provider_transport4http23response_text_truncated0B7_
FN:31,_RNCNvNtNtCseXwexsNt0j5_10ditto_core18provider_transport4http24response_bytes_truncated0B7_
FN:102,_RNCNvNtNtCseXwexsNt0j5_10ditto_core18provider_transport4http24send_checked_with_policy0B7_
FN:65,_RNCNvNtNtCseXwexsNt0j5_10ditto_core18provider_transport4http51read_reqwest_body_bytes_bounded_with_content_length0B7_
FN:95,_RNvNtNtCseXwexsNt0j5_10ditto_core18provider_transport4http12send_checked
FN:13,_RNvNtNtCseXwexsNt0j5_10ditto_core18provider_transport4http23response_text_truncated
FN:28,_RNvNtNtCseXwexsNt0j5_10ditto_core18provider_transport4http24response_bytes_truncated
FN:99,_RNvNtNtCseXwexsNt0j5_10ditto_core18provider_transport4http24send_checked_with_policy
FN:132,_RNvNtNtCseXwexsNt0j5_10ditto_core18provider_transport4http30send_checked_bytes_with_policy
FN:61,_RNvNtNtCseXwexsNt0j5_10ditto_core18provider_transport4http51read_reqwest_body_bytes_bounded_with_content_length
FN:140,_RNCNCNvNtNtCseXwexsNt0j5_10ditto_core18provider_transport4http30send_checked_bytes_with_policy00B9_
FN:141,_RNCNCNvNtNtCseXwexsNt0j5_10ditto_core18provider_transport4http30send_checked_bytes_with_policy0s_0B9_
FN:127,_RNCNvNtNtCseXwexsNt0j5_10ditto_core18provider_transport4http18send_checked_bytes0B7_
FN:135,_RNCNvNtNtCseXwexsNt0j5_10ditto_core18provider_transport4http30send_checked_bytes_with_policy0B7_
FN:127,_RNvNtNtCseXwexsNt0j5_10ditto_core18provider_transport4http18send_checked_bytes
FNDA:0,_RINvNtNtCseXwexsNt0j5_10ditto_core18provider_transport4http17send_checked_jsonNtNCNvNtNtB6_9providers11openai_like10list_files017FilesListResponseEB6_
FNDA:0,_RINvNtNtCseXwexsNt0j5_10ditto_core18provider_transport4http17send_checked_jsonNtNCNvNtNtB6_9providers11openai_like24upload_file_with_purpose019FilesUploadResponseEB6_
FNDA:0,_RINvNtNtCseXwexsNt0j5_10ditto_core18provider_transport4http17send_checked_jsonNtNtNtB6_12capabilities4file10FileObjectEB6_
FNDA:0,_RINvNtNtCseXwexsNt0j5_10ditto_core18provider_transport4http17send_checked_jsonNtNtNtB6_12capabilities4file18FileDeleteResponseEB6_
FNDA:0,_RINvNtNtCseXwexsNt0j5_10ditto_core18provider_transport4http17send_checked_jsonNtNtNtB6_9providers17openai_compatible23ChatCompletionsResponseEB6_
FNDA:0,_RINvNtNtCseXwexsNt0j5_10ditto_core18provider_transport4http29send_checked_json_with_policyNtNCNvNtNtB6_9providers11openai_like10list_files017FilesListResponseEB6_
FNDA:0,_RINvNtNtCseXwexsNt0j5_10ditto_core18provider_transport4http29send_checked_json_with_policyNtNCNvNtNtB6_9providers11openai_like24upload_file_with_purpose019FilesUploadResponseEB6_
FNDA:0,_RINvNtNtCseXwexsNt0j5_10ditto_core18provider_transport4http29send_checked_json_with_policyNtNtNtB6_12capabilities4file10FileObjectEB6_
FNDA:0,_RINvNtNtCseXwexsNt0j5_10ditto_core18provider_transport4http29send_checked_json_with_policyNtNtNtB6_12capabilities4file18FileDeleteResponseEB6_
FNDA:0,_RINvNtNtCseXwexsNt0j5_10ditto_core18provider_transport4http29send_checked_json_with_policyNtNtNtB6_9providers17openai_compatible23ChatCompletionsResponseEB6_
FNDA:0,_RNCINvNtNtCseXwexsNt0j5_10ditto_core18provider_transport4http17send_checked_jsonNtNCNvNtNtB8_9providers11openai_like10list_files017FilesListResponseE0B8_
FNDA:0,_RNCINvNtNtCseXwexsNt0j5_10ditto_core18provider_transport4http17send_checked_jsonNtNCNvNtNtB8_9providers11openai_like24upload_file_with_purpose019FilesUploadResponseE0B8_
FNDA:0,_RNCINvNtNtCseXwexsNt0j5_10ditto_core18provider_transport4http17send_checked_jsonNtNtNtB8_12capabilities4file10FileObjectE0B8_
FNDA:0,_RNCINvNtNtCseXwexsNt0j5_10ditto_core18provider_transport4http17send_checked_jsonNtNtNtB8_12capabilities4file18FileDeleteResponseE0B8_
FNDA:0,_RNCINvNtNtCseXwexsNt0j5_10ditto_core18provider_transport4http17send_checked_jsonNtNtNtB8_9providers17openai_compatible23ChatCompletionsResponseE0B8_
FNDA:0,_RNCINvNtNtCseXwexsNt0j5_10ditto_core18provider_transport4http29send_checked_json_with_policyNtNCNvNtNtB8_9providers11openai_like10list_files017FilesListResponseE0B8_
FNDA:0,_RNCINvNtNtCseXwexsNt0j5_10ditto_core18provider_transport4http29send_checked_json_with_policyNtNCNvNtNtB8_9providers11openai_like24upload_file_with_purpose019FilesUploadResponseE0B8_
FNDA:0,_RNCINvNtNtCseXwexsNt0j5_10ditto_core18provider_transport4http29send_checked_json_with_policyNtNtNtB8_12capabilities4file10FileObjectE0B8_
FNDA:0,_RNCINvNtNtCseXwexsNt0j5_10ditto_core18provider_transport4http29send_checked_json_with_policyNtNtNtB8_12capabilities4file18FileDeleteResponseE0B8_
FNDA:0,_RNCINvNtNtCseXwexsNt0j5_10ditto_core18provider_transport4http29send_checked_json_with_policyNtNtNtB8_9providers17openai_compatible23ChatCompletionsResponseE0B8_
FNDA:0,_RNCNCNvNtNtCseXwexsNt0j5_10ditto_core18provider_transport4http24response_bytes_truncated00B9_
FNDA:0,_RNCNCNvNtNtCseXwexsNt0j5_10ditto_core18provider_transport4http24response_bytes_truncated0s_0B9_
FNDA:0,_RNCNCNvNtNtCseXwexsNt0j5_10ditto_core18provider_transport4http51read_reqwest_body_bytes_bounded_with_content_length00B9_
FNDA:0,_RNCNCNvNtNtCseXwexsNt0j5_10ditto_core18provider_transport4http51read_reqwest_body_bytes_bounded_with_content_length0s0_0B9_
FNDA:0,_RNCNCNvNtNtCseXwexsNt0j5_10ditto_core18provider_transport4http51read_reqwest_body_bytes_bounded_with_content_length0s1_0B9_
FNDA:0,_RNCNCNvNtNtCseXwexsNt0j5_10ditto_core18provider_transport4http51read_reqwest_body_bytes_bounded_with_content_length0s_0B9_
FNDA:0,_RNCNvNtNtCseXwexsNt0j5_10ditto_core18provider_transport4http12send_checked0B7_
FNDA:0,_RNCNvNtNtCseXwexsNt0j5_10ditto_core18provider_transport4http23response_text_truncated0B7_
FNDA:0,_RNCNvNtNtCseXwexsNt0j5_10ditto_core18provider_transport4http24response_bytes_truncated0B7_
FNDA:0,_RNCNvNtNtCseXwexsNt0j5_10ditto_core18provider_transport4http24send_checked_with_policy0B7_
FNDA:0,_RNCNvNtNtCseXwexsNt0j5_10ditto_core18provider_transport4http51read_reqwest_body_bytes_bounded_with_content_length0B7_
FNDA:0,_RNvNtNtCseXwexsNt0j5_10ditto_core18provider_transport4http12send_checked
FNDA:0,_RNvNtNtCseXwexsNt0j5_10ditto_core18provider_transport4http23response_text_truncated
FNDA:0,_RNvNtNtCseXwexsNt0j5_10ditto_core18provider_transport4http24response_bytes_truncated
FNDA:0,_RNvNtNtCseXwexsNt0j5_10ditto_core18provider_transport4http24send_checked_with_policy
FNDA:0,_RNvNtNtCseXwexsNt0j5_10ditto_core18provider_transport4http30send_checked_bytes_with_policy
FNDA:0,_RNvNtNtCseXwexsNt0j5_10ditto_core18provider_transport4http51read_reqwest_body_bytes_bounded_with_content_length
FNDA:0,_RNCNCNvNtNtCseXwexsNt0j5_10ditto_core18provider_transport4http30send_checked_bytes_with_policy00B9_
FNDA:0,_RNCNCNvNtNtCseXwexsNt0j5_10ditto_core18provider_transport4http30send_checked_bytes_with_policy0s_0B9_
FNDA:0,_RNCNvNtNtCseXwexsNt0j5_10ditto_core18provider_transport4http18send_checked_bytes0B7_
FNDA:0,_RNCNvNtNtCseXwexsNt0j5_10ditto_core18provider_transport4http30send_checked_bytes_with_policy0B7_
FNDA:0,_RNvNtNtCseXwexsNt0j5_10ditto_core18provider_transport4http18send_checked_bytes
FNF:26
FNH:0
DA:13,0
DA:14,0
DA:15,0
DA:16,0
DA:18,0
DA:19,0
DA:20,0
DA:21,0
DA:22,0
DA:23,0
DA:24,0
DA:25,0
DA:26,0
DA:28,0
DA:29,0
DA:30,0
DA:31,0
DA:32,0
DA:33,0
DA:34,0
DA:35,0
DA:36,0
DA:37,0
DA:38,0
DA:39,0
DA:41,0
DA:42,0
DA:43,0
DA:44,0
DA:45,0
DA:46,0
DA:47,0
DA:48,0
DA:49,0
DA:50,0
DA:51,0
DA:52,0
DA:53,0
DA:54,0
DA:57,0
DA:58,0
DA:61,0
DA:62,0
DA:63,0
DA:64,0
DA:65,0
DA:66,0
DA:68,0
DA:69,0
DA:70,0
DA:71,0
DA:72,0
DA:73,0
DA:74,0
DA:75,0
DA:76,0
DA:77,0
DA:79,0
DA:80,0
DA:81,0
DA:82,0
DA:83,0
DA:84,0
DA:85,0
DA:86,0
DA:87,0
DA:88,0
DA:89,0
DA:92,0
DA:93,0
DA:95,0
DA:96,0
DA:97,0
DA:99,0
DA:100,0
DA:101,0
DA:102,0
DA:103,0
DA:104,0
DA:105,0
DA:106,0
DA:107,0
DA:108,0
DA:109,0
DA:110,0
DA:112,0
DA:113,0
DA:114,0
DA:115,0
DA:116,0
DA:118,0
DA:119,0
DA:120,0
DA:121,0
DA:122,0
DA:123,0
DA:124,0
DA:127,0
DA:128,0
DA:129,0
DA:132,0
DA:133,0
DA:134,0
DA:135,0
DA:136,0
DA:137,0
DA:138,0
DA:139,0
DA:140,0
DA:141,0
DA:143,0
DA:144,0
DA:145,0
DA:146,0
DA:147,0
DA:148,0
DA:149,0
DA:150,0
DA:151,0
DA:152,0
DA:153,0
DA:154,0
DA:155,0
DA:156,0
DA:157,0
DA:158,0
DA:159,0
DA:160,0
DA:161,0
DA:162,0
DA:163,0
DA:164,0
DA:165,0
DA:166,0
DA:167,0
DA:168,0
BRF:0
BRH:0
LF:153
LH:0
end_of_record
SF:/root/autodl-tmp/zjj/p/ditto-llm/crates/ditto-core/src/provider_transport/policy.rs
FN:56,_RNvMNtNtCseXwexsNt0j5_10ditto_core18provider_transport6policyNtB2_16HttpClientPolicy12from_timeout
FN:36,_RNvMNtNtCseXwexsNt0j5_10ditto_core18provider_transport6policyNtB2_16HttpClientPolicy18default_timeout_ms
FN:32,_RNvMNtNtCseXwexsNt0j5_10ditto_core18provider_transport6policyNtB2_16HttpClientPolicy3new
FN:40,_RNvMNtNtCseXwexsNt0j5_10ditto_core18provider_transport6policyNtB2_16HttpClientPolicy7timeout
FN:75,_RNvMs0_NtNtCseXwexsNt0j5_10ditto_core18provider_transport6policyNtB5_22HttpResponseBodyPolicy3new
FN:84,_RNvXs1_NtNtCseXwexsNt0j5_10ditto_core18provider_transport6policyNtB5_22HttpResponseBodyPolicyNtNtCs7dTDQl1DYhd_4core7default7Default7default
FN:63,_RNvXs_NtNtCseXwexsNt0j5_10ditto_core18provider_transport6policyNtB4_16HttpClientPolicyNtNtCs7dTDQl1DYhd_4core7default7Default7default
FNDA:0,_RNvMNtNtCseXwexsNt0j5_10ditto_core18provider_transport6policyNtB2_16HttpClientPolicy12from_timeout
FNDA:1,_RNvMNtNtCseXwexsNt0j5_10ditto_core18provider_transport6policyNtB2_16HttpClientPolicy18default_timeout_ms
FNDA:1,_RNvMNtNtCseXwexsNt0j5_10ditto_core18provider_transport6policyNtB2_16HttpClientPolicy3new
FNDA:0,_RNvMNtNtCseXwexsNt0j5_10ditto_core18provider_transport6policyNtB2_16HttpClientPolicy7timeout
FNDA:1,_RNvMs0_NtNtCseXwexsNt0j5_10ditto_core18provider_transport6policyNtB5_22HttpResponseBodyPolicy3new
FNDA:1,_RNvXs1_NtNtCseXwexsNt0j5_10ditto_core18provider_transport6policyNtB5_22HttpResponseBodyPolicyNtNtCs7dTDQl1DYhd_4core7default7Default7default
FNDA:1,_RNvXs_NtNtCseXwexsNt0j5_10ditto_core18provider_transport6policyNtB4_16HttpClientPolicyNtNtCs7dTDQl1DYhd_4core7default7Default7default
FNF:7
FNH:5
DA:32,1
DA:33,1
DA:34,1
DA:36,1
DA:37,1
DA:38,1
DA:40,0
DA:41,0
DA:42,0
DA:56,0
DA:57,0
DA:58,0
DA:59,0
DA:63,1
DA:64,1
DA:65,1
DA:75,1
DA:76,1
DA:77,1
DA:78,1
DA:79,1
DA:80,1
DA:84,1
DA:85,1
DA:89,1
BRF:0
BRH:0
LF:25
LH:18
end_of_record
SF:/root/autodl-tmp/zjj/p/ditto-llm/crates/ditto-core/src/providers/openai/client.rs
FN:185,_RNvMNtNtNtCseXwexsNt0j5_10ditto_core9providers6openai6clientNtB2_6OpenAI10apply_auth
FN:164,_RNvMNtNtNtCseXwexsNt0j5_10ditto_core9providers6openai6clientNtB2_6OpenAI11from_config
FN:137,_RNvMNtNtNtCseXwexsNt0j5_10ditto_core9providers6openai6clientNtB2_6OpenAI16with_http_client
FN:159,_RNvMNtNtNtCseXwexsNt0j5_10ditto_core9providers6openai6clientNtB2_6OpenAI30with_max_binary_response_bytes
FN:154,_RNvMNtNtNtCseXwexsNt0j5_10ditto_core9providers6openai6clientNtB2_6OpenAI44with_tool_call_thought_signature_passthrough
FN:149,_RINvMNtNtNtCseXwexsNt0j5_10ditto_core9providers6openai6clientNtB3_6OpenAI10with_modelpEB9_
FN:142,_RINvMNtNtNtCseXwexsNt0j5_10ditto_core9providers6openai6clientNtB3_6OpenAI13with_base_urlpEB9_
FN:124,_RINvMNtNtNtCseXwexsNt0j5_10ditto_core9providers6openai6clientNtB3_6OpenAI3newpEB9_
FN:164,_RNCNvMNtNtNtCseXwexsNt0j5_10ditto_core9providers6openai6clientNtB4_6OpenAI11from_config0Ba_
FNDA:0,_RNvMNtNtNtCseXwexsNt0j5_10ditto_core9providers6openai6clientNtB2_6OpenAI10apply_auth
FNDA:0,_RNvMNtNtNtCseXwexsNt0j5_10ditto_core9providers6openai6clientNtB2_6OpenAI11from_config
FNDA:0,_RNvMNtNtNtCseXwexsNt0j5_10ditto_core9providers6openai6clientNtB2_6OpenAI16with_http_client
FNDA:0,_RNvMNtNtNtCseXwexsNt0j5_10ditto_core9providers6openai6clientNtB2_6OpenAI30with_max_binary_response_bytes
FNDA:0,_RNvMNtNtNtCseXwexsNt0j5_10ditto_core9providers6openai6clientNtB2_6OpenAI44with_tool_call_thought_signature_passthrough
FNDA:0,_RINvMNtNtNtCseXwexsNt0j5_10ditto_core9providers6openai6clientNtB3_6OpenAI10with_modelpEB9_
FNDA:0,_RINvMNtNtNtCseXwexsNt0j5_10ditto_core9providers6openai6clientNtB3_6OpenAI13with_base_urlpEB9_
FNDA:0,_RINvMNtNtNtCseXwexsNt0j5_10ditto_core9providers6openai6clientNtB3_6OpenAI3newpEB9_
FNDA:0,_RNCNvMNtNtNtCseXwexsNt0j5_10ditto_core9providers6openai6clientNtB4_6OpenAI11from_config0Ba_
FNF:9
FNH:0
DA:124,0
DA:125,0
DA:126,0
DA:127,0
DA:128,0
DA:129,0
DA:130,0
DA:131,0
DA:132,0
DA:133,0
DA:134,0
DA:135,0
DA:137,0
DA:138,0
DA:139,0
DA:140,0
DA:142,0
DA:143,0
DA:144,0
DA:145,0
DA:146,0
DA:147,0
DA:149,0
DA:150,0
DA:151,0
DA:152,0
DA:154,0
DA:155,0
DA:156,0
DA:157,0
DA:159,0
DA:160,0
DA:161,0
DA:162,0
DA:164,0
DA:166,0
DA:167,0
DA:169,0
DA:170,0
DA:171,0
DA:172,0
DA:174,0
DA:178,0
DA:179,0
DA:180,0
DA:181,0
DA:183,0
DA:185,0
DA:186,0
DA:187,0
BRF:0
BRH:0
LF:51
LH:0
end_of_record
SF:/root/autodl-tmp/zjj/p/ditto-llm/crates/ditto-core/src/providers/openai/files.rs
FN:28,_RNvMNtNtNtCseXwexsNt0j5_10ditto_core9providers6openai5filesNtNtB4_6client6OpenAI10list_files
FN:41,_RNvMNtNtNtCseXwexsNt0j5_10ditto_core9providers6openai5filesNtNtB4_6client6OpenAI11delete_file
FN:34,_RNvMNtNtNtCseXwexsNt0j5_10ditto_core9providers6openai5filesNtNtB4_6client6OpenAI13retrieve_file
FN:48,_RNvMNtNtNtCseXwexsNt0j5_10ditto_core9providers6openai5filesNtNtB4_6client6OpenAI21download_file_content
FN:2,_RINvMNtNtNtCseXwexsNt0j5_10ditto_core9providers6openai5filesNtNtB5_6client6OpenAI11upload_filepEB9_
FN:11,_RINvMNtNtNtCseXwexsNt0j5_10ditto_core9providers6openai5filesNtNtB5_6client6OpenAI24upload_file_with_purposeppEB9_
FN:6,_RNCINvMNtNtNtCseXwexsNt0j5_10ditto_core9providers6openai5filesNtNtB7_6client6OpenAI11upload_filepE0Bb_
FN:17,_RNCINvMNtNtNtCseXwexsNt0j5_10ditto_core9providers6openai5filesNtNtB7_6client6OpenAI24upload_file_with_purposeppE0Bb_
FN:23,_RNCNCINvMNtNtNtCseXwexsNt0j5_10ditto_core9providers6openai5filesNtNtB9_6client6OpenAI24upload_file_with_purposeppE00Bd_
FN:30,_RNCNvMNtNtNtCseXwexsNt0j5_10ditto_core9providers6openai5filesNtNtB6_6client6OpenAI10list_files0Ba_
FN:44,_RNCNvMNtNtNtCseXwexsNt0j5_10ditto_core9providers6openai5filesNtNtB6_6client6OpenAI11delete_file0Ba_
FN:37,_RNCNvMNtNtNtCseXwexsNt0j5_10ditto_core9providers6openai5filesNtNtB6_6client6OpenAI13retrieve_file0Ba_
FN:51,_RNCNvMNtNtNtCseXwexsNt0j5_10ditto_core9providers6openai5filesNtNtB6_6client6OpenAI21download_file_content0Ba_
FNDA:0,_RNvMNtNtNtCseXwexsNt0j5_10ditto_core9providers6openai5filesNtNtB4_6client6OpenAI10list_files
FNDA:0,_RNvMNtNtNtCseXwexsNt0j5_10ditto_core9providers6openai5filesNtNtB4_6client6OpenAI11delete_file
FNDA:0,_RNvMNtNtNtCseXwexsNt0j5_10ditto_core9providers6openai5filesNtNtB4_6client6OpenAI13retrieve_file
FNDA:0,_RNvMNtNtNtCseXwexsNt0j5_10ditto_core9providers6openai5filesNtNtB4_6client6OpenAI21download_file_content
FNDA:0,_RINvMNtNtNtCseXwexsNt0j5_10ditto_core9providers6openai5filesNtNtB5_6client6OpenAI11upload_filepEB9_
FNDA:0,_RINvMNtNtNtCseXwexsNt0j5_10ditto_core9providers6openai5filesNtNtB5_6client6OpenAI24upload_file_with_purposeppEB9_
FNDA:0,_RNCINvMNtNtNtCseXwexsNt0j5_10ditto_core9providers6openai5filesNtNtB7_6client6OpenAI11upload_filepE0Bb_
FNDA:0,_RNCINvMNtNtNtCseXwexsNt0j5_10ditto_core9providers6openai5filesNtNtB7_6client6OpenAI24upload_file_with_purposeppE0Bb_
FNDA:0,_RNCNCINvMNtNtNtCseXwexsNt0j5_10ditto_core9providers6openai5filesNtNtB9_6client6OpenAI24upload_file_with_purposeppE00Bd_
FNDA:0,_RNCNvMNtNtNtCseXwexsNt0j5_10ditto_core9providers6openai5filesNtNtB6_6client6OpenAI10list_files0Ba_
FNDA:0,_RNCNvMNtNtNtCseXwexsNt0j5_10ditto_core9providers6openai5filesNtNtB6_6client6OpenAI11delete_file0Ba_
FNDA:0,_RNCNvMNtNtNtCseXwexsNt0j5_10ditto_core9providers6openai5filesNtNtB6_6client6OpenAI13retrieve_file0Ba_
FNDA:0,_RNCNvMNtNtNtCseXwexsNt0j5_10ditto_core9providers6openai5filesNtNtB6_6client6OpenAI21download_file_content0Ba_
FNF:13
FNH:0
DA:2,0
DA:3,0
DA:4,0
DA:5,0
DA:6,0
DA:7,0
DA:8,0
DA:9,0
DA:11,0
DA:12,0
DA:13,0
DA:14,0
DA:15,0
DA:16,0
DA:17,0
DA:18,0
DA:19,0
DA:20,0
DA:21,0
DA:22,0
DA:23,0
DA:25,0
DA:26,0
DA:28,0
DA:29,0
DA:30,0
DA:31,0
DA:32,0
DA:34,0
DA:35,0
DA:36,0
DA:37,0
DA:38,0
DA:39,0
DA:41,0
DA:42,0
DA:43,0
DA:44,0
DA:45,0
DA:46,0
DA:48,0
DA:49,0
DA:50,0
DA:51,0
DA:52,0
DA:53,0
BRF:0
BRH:0
LF:53
LH:0
end_of_record
SF:/root/autodl-tmp/zjj/p/ditto-llm/crates/ditto-core/src/providers/openai/models.rs
FN:59,_RNvMNtNtNtCseXwexsNt0j5_10ditto_core9providers6openai6modelsNtNtB4_6client6OpenAI11list_models
FN:69,_RNvMNtNtNtCseXwexsNt0j5_10ditto_core9providers6openai6modelsNtNtB4_6client6OpenAI14list_model_ids
FN:81,_RNvMNtNtNtCseXwexsNt0j5_10ditto_core9providers6openai6modelsNtNtB4_6client6OpenAI14retrieve_model
FN:59,_RNCNvMNtNtNtCseXwexsNt0j5_10ditto_core9providers6openai6modelsNtNtB6_6client6OpenAI11list_models0Ba_
FN:69,_RNCNvMNtNtNtCseXwexsNt0j5_10ditto_core9providers6openai6modelsNtNtB6_6client6OpenAI14list_model_ids0Ba_
FN:81,_RNCNvMNtNtNtCseXwexsNt0j5_10ditto_core9providers6openai6modelsNtNtB6_6client6OpenAI14retrieve_model0Ba_
FNDA:0,_RNvMNtNtNtCseXwexsNt0j5_10ditto_core9providers6openai6modelsNtNtB4_6client6OpenAI11list_models
FNDA:0,_RNvMNtNtNtCseXwexsNt0j5_10ditto_core9providers6openai6modelsNtNtB4_6client6OpenAI14list_model_ids
FNDA:0,_RNvMNtNtNtCseXwexsNt0j5_10ditto_core9providers6openai6modelsNtNtB4_6client6OpenAI14retrieve_model
FNDA:0,_RNCNvMNtNtNtCseXwexsNt0j5_10ditto_core9providers6openai6modelsNtNtB6_6client6OpenAI11list_models0Ba_
FNDA:0,_RNCNvMNtNtNtCseXwexsNt0j5_10ditto_core9providers6openai6modelsNtNtB6_6client6OpenAI14list_model_ids0Ba_
FNDA:0,_RNCNvMNtNtNtCseXwexsNt0j5_10ditto_core9providers6openai6modelsNtNtB6_6client6OpenAI14retrieve_model0Ba_
FNF:6
FNH:0
DA:59,0
DA:60,0
DA:61,0
DA:62,0
DA:63,0
DA:64,0
DA:65,0
DA:66,0
DA:67,0
DA:69,0
DA:70,0
DA:71,0
DA:72,0
DA:73,0
DA:74,0
DA:75,0
DA:76,0
DA:77,0
DA:78,0
DA:79,0
DA:81,0
DA:82,0
DA:83,0
DA:84,0
DA:85,0
DA:86,0
BRF:0
BRH:0
LF:29
LH:0
end_of_record
SF:/root/autodl-tmp/zjj/p/ditto-llm/crates/ditto-core/src/providers/openai/raw_responses.rs
FN:67,_RNvMNtNtNtCseXwexsNt0j5_10ditto_core9providers6openai13raw_responsesNtB2_29OpenAIResponsesRawEventStream4recv
FN:73,_RNvXs_NtNtNtCseXwexsNt0j5_10ditto_core9providers6openai13raw_responsesNtB4_29OpenAIResponsesRawEventStreamNtNtNtCs7dTDQl1DYhd_4core3ops4drop4Drop4drop
FN:67,_RNCNvMNtNtNtCseXwexsNt0j5_10ditto_core9providers6openai13raw_responsesNtB4_29OpenAIResponsesRawEventStream4recv0Ba_
FNDA:0,_RNvMNtNtNtCseXwexsNt0j5_10ditto_core9providers6openai13raw_responsesNtB2_29OpenAIResponsesRawEventStream4recv
FNDA:0,_RNvXs_NtNtNtCseXwexsNt0j5_10ditto_core9providers6openai13raw_responsesNtB4_29OpenAIResponsesRawEventStreamNtNtNtCs7dTDQl1DYhd_4core3ops4drop4Drop4drop
FNDA:0,_RNCNvMNtNtNtCseXwexsNt0j5_10ditto_core9providers6openai13raw_responsesNtB4_29OpenAIResponsesRawEventStream4recv0Ba_
FNF:3
FNH:0
DA:67,0
DA:68,0
DA:69,0
DA:73,0
DA:74,0
DA:75,0
BRF:0
BRH:0
LF:7
LH:0
end_of_record
SF:/root/autodl-tmp/zjj/p/ditto-llm/crates/ditto-core/src/providers/openai_chat_completions_core.rs
FN:904,_RNCNCNvNtNtCseXwexsNt0j5_10ditto_core9providers28openai_chat_completions_core11parse_usages0_00B9_
FN:915,_RNCNCNvNtNtCseXwexsNt0j5_10ditto_core9providers28openai_chat_completions_core11parse_usages3_00B9_
FN:899,_RNCNCNvNtNtCseXwexsNt0j5_10ditto_core9providers28openai_chat_completions_core11parse_usages_00B9_
FN:889,_RNCNvNtNtCseXwexsNt0j5_10ditto_core9providers28openai_chat_completions_core11parse_usage0B7_
FN:902,_RNCNvNtNtCseXwexsNt0j5_10ditto_core9providers28openai_chat_completions_core11parse_usages0_0B7_
FN:907,_RNCNvNtNtCseXwexsNt0j5_10ditto_core9providers28openai_chat_completions_core11parse_usages1_0B7_
FN:908,_RNCNvNtNtCseXwexsNt0j5_10ditto_core9providers28openai_chat_completions_core11parse_usages2_0B7_
FN:913,_RNCNvNtNtCseXwexsNt0j5_10ditto_core9providers28openai_chat_completions_core11parse_usages3_0B7_
FN:918,_RNCNvNtNtCseXwexsNt0j5_10ditto_core9providers28openai_chat_completions_core11parse_usages4_0B7_
FN:897,_RNCNvNtNtCseXwexsNt0j5_10ditto_core9providers28openai_chat_completions_core11parse_usages_0B7_
FN:531,_RNCNvNtNtCseXwexsNt0j5_10ditto_core9providers28openai_chat_completions_core25messages_to_chat_messages0B7_
FN:729,_RNCNvNtNtCseXwexsNt0j5_10ditto_core9providers28openai_chat_completions_core27build_chat_completions_body0B7_
FN:853,_RNCNvNtNtCseXwexsNt0j5_10ditto_core9providers28openai_chat_completions_core27build_chat_completions_bodys0_0B7_
FN:777,_RNCNvNtNtCseXwexsNt0j5_10ditto_core9providers28openai_chat_completions_core27build_chat_completions_bodys_0B7_
FN:385,_RNCNvNtNtCseXwexsNt0j5_10ditto_core9providers28openai_chat_completions_core42encode_tool_call_id_with_thought_signature0B7_
FN:43,_RNvMNtNtCseXwexsNt0j5_10ditto_core9providers28openai_chat_completions_coreNtB2_34OpenAiChatCompletionsRequestQuirks12from_profile
FN:55,_RNvMNtNtCseXwexsNt0j5_10ditto_core9providers28openai_chat_completions_coreNtB2_34OpenAiChatCompletionsRequestQuirks28should_send_prompt_cache_key
FN:59,_RNvMNtNtCseXwexsNt0j5_10ditto_core9providers28openai_chat_completions_coreNtB2_34OpenAiChatCompletionsRequestQuirks49should_send_assistant_tool_call_thought_signature
FN:878,_RNvNtNtCseXwexsNt0j5_10ditto_core9providers28openai_chat_completions_core11parse_usage
FN:397,_RNvNtNtCseXwexsNt0j5_10ditto_core9providers28openai_chat_completions_core14tool_to_openai
FN:866,_RNvNtNtCseXwexsNt0j5_10ditto_core9providers28openai_chat_completions_core19parse_finish_reason
FN:95,_RNvNtNtCseXwexsNt0j5_10ditto_core9providers28openai_chat_completions_core20apply_model_behavior
FN:421,_RNvNtNtCseXwexsNt0j5_10ditto_core9providers28openai_chat_completions_core21tool_choice_to_openai
FN:121,_RNvNtNtCseXwexsNt0j5_10ditto_core9providers28openai_chat_completions_core22resolve_request_quirks
FN:340,_RNvNtNtCseXwexsNt0j5_10ditto_core9providers28openai_chat_completions_core24sanitize_doubao_thinking
FN:447,_RNvNtNtCseXwexsNt0j5_10ditto_core9providers28openai_chat_completions_core25messages_to_chat_messages
FN:328,_RNvNtNtCseXwexsNt0j5_10ditto_core9providers28openai_chat_completions_core26sanitize_deepseek_thinking
FN:657,_RNvNtNtCseXwexsNt0j5_10ditto_core9providers28openai_chat_completions_core27build_chat_completions_body
FN:106,_RNvNtNtCseXwexsNt0j5_10ditto_core9providers28openai_chat_completions_core28apply_explicit_config_quirks
FN:91,_RNvNtNtCseXwexsNt0j5_10ditto_core9providers28openai_chat_completions_core30tool_choice_required_supported
FN:433,_RNvNtNtCseXwexsNt0j5_10ditto_core9providers28openai_chat_completions_core36tool_call_arguments_to_openai_string
FN:349,_RNvNtNtCseXwexsNt0j5_10ditto_core9providers28openai_chat_completions_core40split_tool_call_id_and_thought_signature
FN:378,_RNvNtNtCseXwexsNt0j5_10ditto_core9providers28openai_chat_completions_core42encode_tool_call_id_with_thought_signature
FN:85,_RNvNtNtCseXwexsNt0j5_10ditto_core9providers28openai_chat_completions_core46assistant_tool_call_requires_reasoning_content
FN:178,_RNvNtNtCseXwexsNt0j5_10ditto_core9providers28openai_chat_completions_core53apply_openai_chat_completions_provider_options_schema
FN:66,_RNvXs_NtNtCseXwexsNt0j5_10ditto_core9providers28openai_chat_completions_coreNtB4_34OpenAiChatCompletionsRequestQuirksNtNtCs7dTDQl1DYhd_4core7default7Default7default
FNDA:0,_RNCNCNvNtNtCseXwexsNt0j5_10ditto_core9providers28openai_chat_completions_core11parse_usages0_00B9_
FNDA:0,_RNCNCNvNtNtCseXwexsNt0j5_10ditto_core9providers28openai_chat_completions_core11parse_usages3_00B9_
FNDA:0,_RNCNCNvNtNtCseXwexsNt0j5_10ditto_core9providers28openai_chat_completions_core11parse_usages_00B9_
FNDA:0,_RNCNvNtNtCseXwexsNt0j5_10ditto_core9providers28openai_chat_completions_core11parse_usage0B7_
FNDA:0,_RNCNvNtNtCseXwexsNt0j5_10ditto_core9providers28openai_chat_completions_core11parse_usages0_0B7_
FNDA:0,_RNCNvNtNtCseXwexsNt0j5_10ditto_core9providers28openai_chat_completions_core11parse_usages1_0B7_
FNDA:0,_RNCNvNtNtCseXwexsNt0j5_10ditto_core9providers28openai_chat_completions_core11parse_usages2_0B7_
FNDA:0,_RNCNvNtNtCseXwexsNt0j5_10ditto_core9providers28openai_chat_completions_core11parse_usages3_0B7_
FNDA:0,_RNCNvNtNtCseXwexsNt0j5_10ditto_core9providers28openai_chat_completions_core11parse_usages4_0B7_
FNDA:0,_RNCNvNtNtCseXwexsNt0j5_10ditto_core9providers28openai_chat_completions_core11parse_usages_0B7_
FNDA:0,_RNCNvNtNtCseXwexsNt0j5_10ditto_core9providers28openai_chat_completions_core25messages_to_chat_messages0B7_
FNDA:0,_RNCNvNtNtCseXwexsNt0j5_10ditto_core9providers28openai_chat_completions_core27build_chat_completions_body0B7_
FNDA:0,_RNCNvNtNtCseXwexsNt0j5_10ditto_core9providers28openai_chat_completions_core27build_chat_completions_bodys0_0B7_
FNDA:0,_RNCNvNtNtCseXwexsNt0j5_10ditto_core9providers28openai_chat_completions_core27build_chat_completions_bodys_0B7_
FNDA:0,_RNCNvNtNtCseXwexsNt0j5_10ditto_core9providers28openai_chat_completions_core42encode_tool_call_id_with_thought_signature0B7_
FNDA:0,_RNvMNtNtCseXwexsNt0j5_10ditto_core9providers28openai_chat_completions_coreNtB2_34OpenAiChatCompletionsRequestQuirks12from_profile
FNDA:0,_RNvMNtNtCseXwexsNt0j5_10ditto_core9providers28openai_chat_completions_coreNtB2_34OpenAiChatCompletionsRequestQuirks28should_send_prompt_cache_key
FNDA:0,_RNvMNtNtCseXwexsNt0j5_10ditto_core9providers28openai_chat_completions_coreNtB2_34OpenAiChatCompletionsRequestQuirks49should_send_assistant_tool_call_thought_signature
FNDA:0,_RNvNtNtCseXwexsNt0j5_10ditto_core9providers28openai_chat_completions_core11parse_usage
FNDA:0,_RNvNtNtCseXwexsNt0j5_10ditto_core9providers28openai_chat_completions_core14tool_to_openai
FNDA:0,_RNvNtNtCseXwexsNt0j5_10ditto_core9providers28openai_chat_completions_core19parse_finish_reason
FNDA:0,_RNvNtNtCseXwexsNt0j5_10ditto_core9providers28openai_chat_completions_core20apply_model_behavior
FNDA:0,_RNvNtNtCseXwexsNt0j5_10ditto_core9providers28openai_chat_completions_core21tool_choice_to_openai
FNDA:0,_RNvNtNtCseXwexsNt0j5_10ditto_core9providers28openai_chat_completions_core22resolve_request_quirks
FNDA:0,_RNvNtNtCseXwexsNt0j5_10ditto_core9providers28openai_chat_completions_core24sanitize_doubao_thinking
FNDA:0,_RNvNtNtCseXwexsNt0j5_10ditto_core9providers28openai_chat_completions_core25messages_to_chat_messages
FNDA:0,_RNvNtNtCseXwexsNt0j5_10ditto_core9providers28openai_chat_completions_core26sanitize_deepseek_thinking
FNDA:0,_RNvNtNtCseXwexsNt0j5_10ditto_core9providers28openai_chat_completions_core27build_chat_completions_body
FNDA:0,_RNvNtNtCseXwexsNt0j5_10ditto_core9providers28openai_chat_completions_core28apply_explicit_config_quirks
FNDA:0,_RNvNtNtCseXwexsNt0j5_10ditto_core9providers28openai_chat_completions_core30tool_choice_required_supported
FNDA:0,_RNvNtNtCseXwexsNt0j5_10ditto_core9providers28openai_chat_completions_core36tool_call_arguments_to_openai_string
FNDA:0,_RNvNtNtCseXwexsNt0j5_10ditto_core9providers28openai_chat_completions_core40split_tool_call_id_and_thought_signature
FNDA:0,_RNvNtNtCseXwexsNt0j5_10ditto_core9providers28openai_chat_completions_core42encode_tool_call_id_with_thought_signature
FNDA:0,_RNvNtNtCseXwexsNt0j5_10ditto_core9providers28openai_chat_completions_core46assistant_tool_call_requires_reasoning_content
FNDA:0,_RNvNtNtCseXwexsNt0j5_10ditto_core9providers28openai_chat_completions_core53apply_openai_chat_completions_provider_options_schema
FNDA:0,_RNvXs_NtNtCseXwexsNt0j5_10ditto_core9providers28openai_chat_completions_coreNtB4_34OpenAiChatCompletionsRequestQuirksNtNtCs7dTDQl1DYhd_4core7default7Default7default
FNF:36
FNH:0
DA:43,0
DA:44,0
DA:45,0
DA:46,0
DA:47,0
DA:48,0
DA:49,0
DA:50,0
DA:51,0
DA:52,0
DA:53,0
DA:55,0
DA:56,0
DA:57,0
DA:59,0
DA:60,0
DA:61,0
DA:62,0
DA:66,0
DA:67,0
DA:68,0
DA:69,0
DA:70,0
DA:71,0
DA:72,0
DA:85,0
DA:86,0
DA:87,0
DA:88,0
DA:89,0
DA:91,0
DA:92,0
DA:93,0
DA:95,0
DA:96,0
DA:97,0
DA:98,0
DA:99,0
DA:100,0
DA:101,0
DA:102,0
DA:103,0
DA:104,0
DA:106,0
DA:107,0
DA:108,0
DA:109,0
DA:110,0
DA:111,0
DA:113,0
DA:114,0
DA:115,0
DA:116,0
DA:117,0
DA:118,0
DA:119,0
DA:121,0
DA:122,0
DA:123,0
DA:124,0
DA:125,0
DA:126,0
DA:127,0
DA:128,0
DA:129,0
DA:130,0
DA:131,0
DA:132,0
DA:133,0
DA:134,0
DA:135,0
DA:136,0
DA:137,0
DA:138,0
DA:139,0
DA:178,0
DA:179,0
DA:180,0
DA:181,0
DA:182,0
DA:183,0
DA:184,0
DA:185,0
DA:186,0
DA:187,0
DA:188,0
DA:191,0
DA:192,0
DA:193,0
DA:194,0
DA:195,0
DA:198,0
DA:199,0
DA:201,0
DA:202,0
DA:203,0
DA:204,0
DA:205,0
DA:206,0
DA:207,0
DA:208,0
DA:210,0
DA:211,0
DA:213,0
DA:214,0
DA:215,0
DA:216,0
DA:217,0
DA:218,0
DA:219,0
DA:220,0
DA:221,0
DA:222,0
DA:223,0
DA:226,0
DA:227,0
DA:228,0
DA:229,0
DA:230,0
DA:231,0
DA:232,0
DA:233,0
DA:234,0
DA:235,0
DA:236,0
DA:237,0
DA:238,0
DA:239,0
DA:240,0
DA:241,0
DA:242,0
DA:243,0
DA:244,0
DA:245,0
DA:246,0
DA:249,0
DA:250,0
DA:251,0
DA:252,0
DA:253,0
DA:254,0
DA:256,0
DA:257,0
DA:258,0
DA:259,0
DA:260,0
DA:261,0
DA:262,0
DA:263,0
DA:264,0
DA:265,0
DA:266,0
DA:267,0
DA:268,0
DA:269,0
DA:270,0
DA:271,0
DA:272,0
DA:275,0
DA:276,0
DA:277,0
DA:278,0
DA:279,0
DA:280,0
DA:281,0
DA:282,0
DA:283,0
DA:284,0
DA:285,0
DA:286,0
DA:287,0
DA:288,0
DA:289,0
DA:290,0
DA:291,0
DA:292,0
DA:293,0
DA:294,0
DA:295,0
DA:302,0
DA:305,0
DA:306,0
DA:307,0
DA:309,0
DA:310,0
DA:311,0
DA:312,0
DA:313,0
DA:314,0
DA:315,0
DA:319,0
DA:320,0
DA:322,0
DA:324,0
DA:326,0
DA:328,0
DA:329,0
DA:330,0
DA:331,0
DA:333,0
DA:334,0
DA:335,0
DA:336,0
DA:337,0
DA:338,0
DA:340,0
DA:341,0
DA:342,0
DA:343,0
DA:344,0
DA:345,0
DA:346,0
DA:347,0
DA:349,0
DA:350,0
DA:351,0
DA:353,0
DA:354,0
DA:355,0
DA:356,0
DA:357,0
DA:358,0
DA:359,0
DA:360,0
DA:362,0
DA:363,0
DA:364,0
DA:366,0
DA:368,0
DA:369,0
DA:370,0
DA:372,0
DA:373,0
DA:374,0
DA:375,0
DA:376,0
DA:378,0
DA:379,0
DA:380,0
DA:381,0
DA:382,0
DA:383,0
DA:384,0
DA:385,0
DA:387,0
DA:389,0
DA:390,0
DA:392,0
DA:394,0
DA:395,0
DA:397,0
DA:398,0
DA:399,0
DA:400,0
DA:401,0
DA:402,0
DA:403,0
DA:405,0
DA:406,0
DA:407,0
DA:408,0
DA:409,0
DA:410,0
DA:411,0
DA:412,0
DA:413,0
DA:415,0
DA:416,0
DA:417,0
DA:418,0
DA:419,0
DA:421,0
DA:422,0
DA:423,0
DA:424,0
DA:425,0
DA:426,0
DA:427,0
DA:428,0
DA:431,0
DA:433,0
DA:434,0
DA:435,0
DA:436,0
DA:437,0
DA:438,0
DA:440,0
DA:443,0
DA:445,0
DA:447,0
DA:448,0
DA:449,0
DA:450,0
DA:451,0
DA:452,0
DA:453,0
DA:454,0
DA:455,0
DA:457,0
DA:458,0
DA:460,0
DA:461,0
DA:462,0
DA:463,0
DA:464,0
DA:465,0
DA:466,0
DA:467,0
DA:470,0
DA:471,0
DA:472,0
DA:473,0
DA:476,0
DA:477,0
DA:478,0
DA:480,0
DA:481,0
DA:482,0
DA:483,0
DA:484,0
DA:485,0
DA:486,0
DA:487,0
DA:489,0
DA:490,0
DA:491,0
DA:492,0
DA:493,0
DA:494,0
DA:497,0
DA:498,0
DA:499,0
DA:503,0
DA:504,0
DA:505,0
DA:507,0
DA:508,0
DA:509,0
DA:510,0
DA:511,0
DA:512,0
DA:513,0
DA:514,0
DA:515,0
DA:517,0
DA:518,0
DA:519,0
DA:520,0
DA:521,0
DA:522,0
DA:523,0
DA:524,0
DA:525,0
DA:526,0
DA:528,0
DA:529,0
DA:530,0
DA:531,0
DA:532,0
DA:535,0
DA:536,0
DA:537,0
DA:540,0
DA:542,0
DA:543,0
DA:544,0
DA:545,0
DA:549,0
DA:550,0
DA:551,0
DA:553,0
DA:554,0
DA:555,0
DA:556,0
DA:557,0
DA:560,0
DA:561,0
DA:562,0
DA:563,0
DA:564,0
DA:565,0
DA:566,0
DA:568,0
DA:569,0
DA:570,0
DA:572,0
DA:573,0
DA:574,0
DA:575,0
DA:576,0
DA:577,0
DA:578,0
DA:580,0
DA:581,0
DA:582,0
DA:583,0
DA:584,0
DA:585,0
DA:586,0
DA:587,0
DA:588,0
DA:589,0
DA:590,0
DA:591,0
DA:592,0
DA:593,0
DA:594,0
DA:596,0
DA:597,0
DA:598,0
DA:599,0
DA:603,0
DA:604,0
DA:605,0
DA:606,0
DA:608,0
DA:609,0
DA:610,0
DA:611,0
DA:612,0
DA:613,0
DA:614,0
DA:615,0
DA:616,0
DA:617,0
DA:618,0
DA:619,0
DA:620,0
DA:621,0
DA:622,0
DA:623,0
DA:626,0
DA:627,0
DA:629,0
DA:630,0
DA:633,0
DA:634,0
DA:635,0
DA:636,0
DA:637,0
DA:638,0
DA:639,0
DA:640,0
DA:641,0
DA:644,0
DA:645,0
DA:646,0
DA:647,0
DA:654,0
DA:655,0
DA:657,0
DA:658,0
DA:659,0
DA:660,0
DA:661,0
DA:662,0
DA:663,0
DA:664,0
DA:665,0
DA:666,0
DA:668,0
DA:669,0
DA:670,0
DA:671,0
DA:672,0
DA:673,0
DA:674,0
DA:675,0
DA:676,0
DA:677,0
DA:679,0
DA:680,0
DA:681,0
DA:682,0
DA:683,0
DA:684,0
DA:685,0
DA:686,0
DA:687,0
DA:688,0
DA:689,0
DA:690,0
DA:691,0
DA:692,0
DA:693,0
DA:694,0
DA:695,0
DA:696,0
DA:697,0
DA:698,0
DA:699,0
DA:700,0
DA:701,0
DA:702,0
DA:703,0
DA:704,0
DA:705,0
DA:706,0
DA:707,0
DA:708,0
DA:709,0
DA:710,0
DA:711,0
DA:712,0
DA:713,0
DA:714,0
DA:715,0
DA:716,0
DA:717,0
DA:718,0
DA:719,0
DA:720,0
DA:721,0
DA:722,0
DA:723,0
DA:724,0
DA:725,0
DA:726,0
DA:727,0
DA:728,0
DA:729,0
DA:730,0
DA:731,0
DA:732,0
DA:733,0
DA:734,0
DA:735,0
DA:736,0
DA:737,0
DA:738,0
DA:739,0
DA:740,0
DA:742,0
DA:743,0
DA:744,0
DA:745,0
DA:746,0
DA:747,0
DA:748,0
DA:749,0
DA:750,0
DA:751,0
DA:752,0
DA:753,0
DA:754,0
DA:755,0
DA:756,0
DA:757,0
DA:758,0
DA:759,0
DA:760,0
DA:761,0
DA:762,0
DA:763,0
DA:764,0
DA:765,0
DA:766,0
DA:767,0
DA:768,0
DA:769,0
DA:770,0
DA:771,0
DA:773,0
DA:774,0
DA:775,0
DA:776,0
DA:777,0
DA:778,0
DA:779,0
DA:780,0
DA:781,0
DA:782,0
DA:783,0
DA:784,0
DA:785,0
DA:786,0
DA:787,0
DA:788,0
DA:789,0
DA:790,0
DA:792,0
DA:793,0
DA:794,0
DA:795,0
DA:796,0
DA:797,0
DA:798,0
DA:800,0
DA:801,0
DA:802,0
DA:803,0
DA:804,0
DA:805,0
DA:806,0
DA:808,0
DA:809,0
DA:810,0
DA:811,0
DA:813,0
DA:814,0
DA:815,0
DA:816,0
DA:817,0
DA:818,0
DA:819,0
DA:820,0
DA:821,0
DA:822,0
DA:823,0
DA:824,0
DA:825,0
DA:826,0
DA:827,0
DA:828,0
DA:829,0
DA:830,0
DA:831,0
DA:833,0
DA:834,0
DA:835,0
DA:836,0
DA:837,0
DA:838,0
DA:839,0
DA:841,0
DA:842,0
DA:843,0
DA:844,0
DA:845,0
DA:846,0
DA:849,0
DA:850,0
DA:851,0
DA:852,0
DA:853,0
DA:855,0
DA:856,0
DA:857,0
DA:858,0
DA:859,0
DA:860,0
DA:861,0
DA:863,0
DA:864,0
DA:866,0
DA:867,0
DA:868,0
DA:869,0
DA:870,0
DA:871,0
DA:872,0
DA:873,0
DA:874,0
DA:876,0
DA:878,0
DA:879,0
DA:880,0
DA:881,0
DA:882,0
DA:883,0
DA:885,0
DA:886,0
DA:887,0
DA:888,0
DA:889,0
DA:890,0
DA:891,0
DA:892,0
DA:894,0
DA:895,0
DA:896,0
DA:897,0
DA:898,0
DA:899,0
DA:900,0
DA:901,0
DA:902,0
DA:903,0
DA:904,0
DA:905,0
DA:906,0
DA:907,0
DA:908,0
DA:909,0
DA:910,0
DA:911,0
DA:912,0
DA:913,0
DA:914,0
DA:915,0
DA:916,0
DA:917,0
DA:918,0
DA:919,0
DA:920,0
DA:921,0
DA:922,0
DA:923,0
DA:924,0
BRF:0
BRH:0
LF:713
LH:0
end_of_record
SF:/root/autodl-tmp/zjj/p/ditto-llm/crates/ditto-core/src/providers/openai_compat_profile.rs
FN:68,_RNCNvMs_NtNtCseXwexsNt0j5_10ditto_core9providers21openai_compat_profileNtB6_26OpenAiCompatibilityProfile7resolve0Ba_
FN:77,_RNCNvMs_NtNtCseXwexsNt0j5_10ditto_core9providers21openai_compat_profileNtB6_26OpenAiCompatibilityProfile7resolves0_0Ba_
FN:78,_RNCNvMs_NtNtCseXwexsNt0j5_10ditto_core9providers21openai_compat_profileNtB6_26OpenAiCompatibilityProfile7resolves1_0Ba_
FN:80,_RNCNvMs_NtNtCseXwexsNt0j5_10ditto_core9providers21openai_compat_profileNtB6_26OpenAiCompatibilityProfile7resolves2_0Ba_
FN:74,_RNCNvMs_NtNtCseXwexsNt0j5_10ditto_core9providers21openai_compat_profileNtB6_26OpenAiCompatibilityProfile7resolves_0Ba_
FN:211,_RNCNvNtNtCseXwexsNt0j5_10ditto_core9providers21openai_compat_profile24explicit_family_override0B7_
FN:23,_RNvMNtNtCseXwexsNt0j5_10ditto_core9providers21openai_compat_profileNtB2_20OpenAiProviderFamily6as_str
FN:131,_RNvMs_NtNtCseXwexsNt0j5_10ditto_core9providers21openai_compat_profileNtB4_26OpenAiCompatibilityProfile14model_behavior
FN:161,_RNvMs_NtNtCseXwexsNt0j5_10ditto_core9providers21openai_compat_profileNtB4_26OpenAiCompatibilityProfile21context_cache_profile
FN:114,_RNvMs_NtNtCseXwexsNt0j5_10ditto_core9providers21openai_compat_profileNtB4_26OpenAiCompatibilityProfile30default_allow_prompt_cache_key
FN:122,_RNvMs_NtNtCseXwexsNt0j5_10ditto_core9providers21openai_compat_profileNtB4_26OpenAiCompatibilityProfile39should_send_tool_call_thought_signature
FN:118,_RNvMs_NtNtCseXwexsNt0j5_10ditto_core9providers21openai_compat_profileNtB4_26OpenAiCompatibilityProfile54default_assistant_tool_call_requires_reasoning_content
FN:102,_RNvMs_NtNtCseXwexsNt0j5_10ditto_core9providers21openai_compat_profileNtB4_26OpenAiCompatibilityProfile6family
FN:66,_RNvMs_NtNtCseXwexsNt0j5_10ditto_core9providers21openai_compat_profileNtB4_26OpenAiCompatibilityProfile7resolve
FN:207,_RNvNtNtCseXwexsNt0j5_10ditto_core9providers21openai_compat_profile24explicit_family_override
FN:247,_RNvNtNtCseXwexsNt0j5_10ditto_core9providers21openai_compat_profile28infer_openai_provider_family
FN:231,_RNvNtNtCseXwexsNt0j5_10ditto_core9providers21openai_compat_profile28parse_openai_provider_family
FN:215,_RNvNtNtCseXwexsNt0j5_10ditto_core9providers21openai_compat_profile35default_catalog_provider_for_family
FN:193,_RNvNtNtCseXwexsNt0j5_10ditto_core9providers21openai_compat_profile43openai_provider_family_for_catalog_provider
FNDA:0,_RNCNvMs_NtNtCseXwexsNt0j5_10ditto_core9providers21openai_compat_profileNtB6_26OpenAiCompatibilityProfile7resolve0Ba_
FNDA:0,_RNCNvMs_NtNtCseXwexsNt0j5_10ditto_core9providers21openai_compat_profileNtB6_26OpenAiCompatibilityProfile7resolves0_0Ba_
FNDA:0,_RNCNvMs_NtNtCseXwexsNt0j5_10ditto_core9providers21openai_compat_profileNtB6_26OpenAiCompatibilityProfile7resolves1_0Ba_
FNDA:0,_RNCNvMs_NtNtCseXwexsNt0j5_10ditto_core9providers21openai_compat_profileNtB6_26OpenAiCompatibilityProfile7resolves2_0Ba_
FNDA:0,_RNCNvMs_NtNtCseXwexsNt0j5_10ditto_core9providers21openai_compat_profileNtB6_26OpenAiCompatibilityProfile7resolves_0Ba_
FNDA:0,_RNCNvNtNtCseXwexsNt0j5_10ditto_core9providers21openai_compat_profile24explicit_family_override0B7_
FNDA:0,_RNvMNtNtCseXwexsNt0j5_10ditto_core9providers21openai_compat_profileNtB2_20OpenAiProviderFamily6as_str
FNDA:0,_RNvMs_NtNtCseXwexsNt0j5_10ditto_core9providers21openai_compat_profileNtB4_26OpenAiCompatibilityProfile14model_behavior
FNDA:0,_RNvMs_NtNtCseXwexsNt0j5_10ditto_core9providers21openai_compat_profileNtB4_26OpenAiCompatibilityProfile21context_cache_profile
FNDA:0,_RNvMs_NtNtCseXwexsNt0j5_10ditto_core9providers21openai_compat_profileNtB4_26OpenAiCompatibilityProfile30default_allow_prompt_cache_key
FNDA:0,_RNvMs_NtNtCseXwexsNt0j5_10ditto_core9providers21openai_compat_profileNtB4_26OpenAiCompatibilityProfile39should_send_tool_call_thought_signature
FNDA:0,_RNvMs_NtNtCseXwexsNt0j5_10ditto_core9providers21openai_compat_profileNtB4_26OpenAiCompatibilityProfile54default_assistant_tool_call_requires_reasoning_content
FNDA:0,_RNvMs_NtNtCseXwexsNt0j5_10ditto_core9providers21openai_compat_profileNtB4_26OpenAiCompatibilityProfile6family
FNDA:0,_RNvMs_NtNtCseXwexsNt0j5_10ditto_core9providers21openai_compat_profileNtB4_26OpenAiCompatibilityProfile7resolve
FNDA:0,_RNvNtNtCseXwexsNt0j5_10ditto_core9providers21openai_compat_profile24explicit_family_override
FNDA:0,_RNvNtNtCseXwexsNt0j5_10ditto_core9providers21openai_compat_profile28infer_openai_provider_family
FNDA:0,_RNvNtNtCseXwexsNt0j5_10ditto_core9providers21openai_compat_profile28parse_openai_provider_family
FNDA:0,_RNvNtNtCseXwexsNt0j5_10ditto_core9providers21openai_compat_profile35default_catalog_provider_for_family
FNDA:0,_RNvNtNtCseXwexsNt0j5_10ditto_core9providers21openai_compat_profile43openai_provider_family_for_catalog_provider
FNF:19
FNH:0
DA:23,0
DA:24,0
DA:25,0
DA:26,0
DA:27,0
DA:28,0
DA:29,0
DA:30,0
DA:31,0
DA:32,0
DA:33,0
DA:34,0
DA:36,0
DA:66,0
DA:67,0
DA:68,0
DA:69,0
DA:70,0
DA:71,0
DA:72,0
DA:73,0
DA:74,0
DA:75,0
DA:76,0
DA:77,0
DA:78,0
DA:79,0
DA:80,0
DA:82,0
DA:85,0
DA:86,0
DA:89,0
DA:90,0
DA:91,0
DA:94,0
DA:95,0
DA:96,0
DA:97,0
DA:98,0
DA:99,0
DA:100,0
DA:102,0
DA:103,0
DA:104,0
DA:114,0
DA:115,0
DA:116,0
DA:118,0
DA:119,0
DA:120,0
DA:122,0
DA:123,0
DA:124,0
DA:126,0
DA:129,0
DA:131,0
DA:132,0
DA:133,0
DA:134,0
DA:135,0
DA:136,0
DA:138,0
DA:139,0
DA:140,0
DA:142,0
DA:143,0
DA:144,0
DA:146,0
DA:147,0
DA:148,0
DA:149,0
DA:150,0
DA:151,0
DA:152,0
DA:153,0
DA:154,0
DA:155,0
DA:156,0
DA:157,0
DA:158,0
DA:159,0
DA:161,0
DA:162,0
DA:163,0
DA:164,0
DA:166,0
DA:167,0
DA:168,0
DA:170,0
DA:171,0
DA:172,0
DA:173,0
DA:174,0
DA:175,0
DA:176,0
DA:177,0
DA:178,0
DA:179,0
DA:180,0
DA:181,0
DA:182,0
DA:183,0
DA:184,0
DA:185,0
DA:186,0
DA:187,0
DA:188,0
DA:190,0
DA:193,0
DA:194,0
DA:195,0
DA:196,0
DA:197,0
DA:198,0
DA:199,0
DA:200,0
DA:201,0
DA:202,0
DA:203,0
DA:205,0
DA:207,0
DA:208,0
DA:209,0
DA:210,0
DA:211,0
DA:212,0
DA:213,0
DA:215,0
DA:216,0
DA:217,0
DA:218,0
DA:219,0
DA:220,0
DA:221,0
DA:222,0
DA:223,0
DA:224,0
DA:226,0
DA:229,0
DA:231,0
DA:232,0
DA:233,0
DA:234,0
DA:235,0
DA:236,0
DA:237,0
DA:238,0
DA:239,0
DA:240,0
DA:241,0
DA:242,0
DA:243,0
DA:245,0
DA:247,0
DA:248,0
DA:249,0
DA:251,0
DA:252,0
DA:253,0
DA:254,0
DA:255,0
DA:256,0
DA:257,0
DA:258,0
DA:259,0
DA:260,0
DA:261,0
DA:262,0
DA:263,0
DA:265,0
DA:266,0
DA:267,0
DA:268,0
DA:269,0
DA:270,0
DA:272,0
DA:273,0
DA:274,0
DA:275,0
DA:276,0
DA:277,0
DA:278,0
DA:279,0
DA:280,0
DA:281,0
DA:283,0
DA:284,0
DA:285,0
DA:286,0
DA:287,0
DA:289,0
DA:290,0
BRF:0
BRH:0
LF:198
LH:0
end_of_record
SF:/root/autodl-tmp/zjj/p/ditto-llm/crates/ditto-core/src/providers/openai_compatible/chat_completions.rs
FN:592,_RNCNCNCNvXs5_NtNtCseXwexsNt0j5_10ditto_core9providers17openai_compatibleNtBb_16OpenAICompatibleNtNtNtBf_8llm_core5model13LanguageModel6stream000Bf_
FN:638,_RNCNCNvXs5_NtNtCseXwexsNt0j5_10ditto_core9providers17openai_compatibleNtB9_16OpenAICompatibleNtNtNtBd_8llm_core5model13LanguageModel6stream00Bd_
FN:442,_RNCNCNvXs5_NtNtCseXwexsNt0j5_10ditto_core9providers17openai_compatibleNtB9_16OpenAICompatibleNtNtNtBd_8llm_core5model13LanguageModel8generate00Bd_
FN:458,_RNCNCNvXs5_NtNtCseXwexsNt0j5_10ditto_core9providers17openai_compatibleNtB9_16OpenAICompatibleNtNtNtBd_8llm_core5model13LanguageModel8generate0s0_0Bd_
FN:479,_RNCNCNvXs5_NtNtCseXwexsNt0j5_10ditto_core9providers17openai_compatibleNtB9_16OpenAICompatibleNtNtNtBd_8llm_core5model13LanguageModel8generate0s1_0Bd_
FN:452,_RNCNCNvXs5_NtNtCseXwexsNt0j5_10ditto_core9providers17openai_compatibleNtB9_16OpenAICompatibleNtNtNtBd_8llm_core5model13LanguageModel8generate0s_0Bd_
FN:223,_RNCNvNtNtCseXwexsNt0j5_10ditto_core9providers17openai_compatible17parse_stream_data0B7_
FN:273,_RNCNvNtNtCseXwexsNt0j5_10ditto_core9providers17openai_compatible17parse_stream_datas0_0B7_
FN:278,_RNCNvNtNtCseXwexsNt0j5_10ditto_core9providers17openai_compatible17parse_stream_datas1_0B7_
FN:285,_RNCNvNtNtCseXwexsNt0j5_10ditto_core9providers17openai_compatible17parse_stream_datas2_0B7_
FN:349,_RNCNvNtNtCseXwexsNt0j5_10ditto_core9providers17openai_compatible17parse_stream_datas3_0B7_
FN:266,_RNCNvNtNtCseXwexsNt0j5_10ditto_core9providers17openai_compatible17parse_stream_datas_0B7_
FN:159,_RNCNvNtNtCseXwexsNt0j5_10ditto_core9providers17openai_compatible21finalize_stream_state0B7_
FN:167,_RNCNvNtNtCseXwexsNt0j5_10ditto_core9providers17openai_compatible21finalize_stream_states_0B7_
FN:217,_RNvNtNtCseXwexsNt0j5_10ditto_core9providers17openai_compatible17parse_stream_data
FN:149,_RNvNtNtCseXwexsNt0j5_10ditto_core9providers17openai_compatible21finalize_stream_state
FN:541,_RNvXs5_NtNtCseXwexsNt0j5_10ditto_core9providers17openai_compatibleNtB5_16OpenAICompatibleNtNtNtB9_8llm_core5model13LanguageModel6stream
FN:409,_RNvXs5_NtNtCseXwexsNt0j5_10ditto_core9providers17openai_compatibleNtB5_16OpenAICompatibleNtNtNtB9_8llm_core5model13LanguageModel8generate
FN:405,_RNvXs5_NtNtCseXwexsNt0j5_10ditto_core9providers17openai_compatibleNtB5_16OpenAICompatibleNtNtNtB9_8llm_core5model13LanguageModel8model_id
FN:401,_RNvXs5_NtNtCseXwexsNt0j5_10ditto_core9providers17openai_compatibleNtB5_16OpenAICompatibleNtNtNtB9_8llm_core5model13LanguageModel8provider
FNDA:0,_RNCNCNCNvXs5_NtNtCseXwexsNt0j5_10ditto_core9providers17openai_compatibleNtBb_16OpenAICompatibleNtNtNtBf_8llm_core5model13LanguageModel6stream000Bf_
FNDA:0,_RNCNCNvXs5_NtNtCseXwexsNt0j5_10ditto_core9providers17openai_compatibleNtB9_16OpenAICompatibleNtNtNtBd_8llm_core5model13LanguageModel6stream00Bd_
FNDA:0,_RNCNCNvXs5_NtNtCseXwexsNt0j5_10ditto_core9providers17openai_compatibleNtB9_16OpenAICompatibleNtNtNtBd_8llm_core5model13LanguageModel8generate00Bd_
FNDA:0,_RNCNCNvXs5_NtNtCseXwexsNt0j5_10ditto_core9providers17openai_compatibleNtB9_16OpenAICompatibleNtNtNtBd_8llm_core5model13LanguageModel8generate0s0_0Bd_
FNDA:0,_RNCNCNvXs5_NtNtCseXwexsNt0j5_10ditto_core9providers17openai_compatibleNtB9_16OpenAICompatibleNtNtNtBd_8llm_core5model13LanguageModel8generate0s1_0Bd_
FNDA:0,_RNCNCNvXs5_NtNtCseXwexsNt0j5_10ditto_core9providers17openai_compatibleNtB9_16OpenAICompatibleNtNtNtBd_8llm_core5model13LanguageModel8generate0s_0Bd_
FNDA:0,_RNCNvNtNtCseXwexsNt0j5_10ditto_core9providers17openai_compatible17parse_stream_data0B7_
FNDA:0,_RNCNvNtNtCseXwexsNt0j5_10ditto_core9providers17openai_compatible17parse_stream_datas0_0B7_
FNDA:0,_RNCNvNtNtCseXwexsNt0j5_10ditto_core9providers17openai_compatible17parse_stream_datas1_0B7_
FNDA:0,_RNCNvNtNtCseXwexsNt0j5_10ditto_core9providers17openai_compatible17parse_stream_datas2_0B7_
FNDA:0,_RNCNvNtNtCseXwexsNt0j5_10ditto_core9providers17openai_compatible17parse_stream_datas3_0B7_
FNDA:0,_RNCNvNtNtCseXwexsNt0j5_10ditto_core9providers17openai_compatible17parse_stream_datas_0B7_
FNDA:0,_RNCNvNtNtCseXwexsNt0j5_10ditto_core9providers17openai_compatible21finalize_stream_state0B7_
FNDA:0,_RNCNvNtNtCseXwexsNt0j5_10ditto_core9providers17openai_compatible21finalize_stream_states_0B7_
FNDA:0,_RNvNtNtCseXwexsNt0j5_10ditto_core9providers17openai_compatible17parse_stream_data
FNDA:0,_RNvNtNtCseXwexsNt0j5_10ditto_core9providers17openai_compatible21finalize_stream_state
FNDA:0,_RNvXs5_NtNtCseXwexsNt0j5_10ditto_core9providers17openai_compatibleNtB5_16OpenAICompatibleNtNtNtB9_8llm_core5model13LanguageModel6stream
FNDA:0,_RNvXs5_NtNtCseXwexsNt0j5_10ditto_core9providers17openai_compatibleNtB5_16OpenAICompatibleNtNtNtB9_8llm_core5model13LanguageModel8generate
FNDA:0,_RNvXs5_NtNtCseXwexsNt0j5_10ditto_core9providers17openai_compatibleNtB5_16OpenAICompatibleNtNtNtB9_8llm_core5model13LanguageModel8model_id
FNDA:0,_RNvXs5_NtNtCseXwexsNt0j5_10ditto_core9providers17openai_compatibleNtB5_16OpenAICompatibleNtNtNtB9_8llm_core5model13LanguageModel8provider
FNF:20
FNH:0
DA:149,0
DA:150,0
DA:151,0
DA:153,0
DA:154,0
DA:155,0
DA:156,0
DA:158,0
DA:159,0
DA:160,0
DA:161,0
DA:163,0
DA:164,0
DA:165,0
DA:167,0
DA:168,0
DA:170,0
DA:171,0
DA:172,0
DA:173,0
DA:174,0
DA:175,0
DA:176,0
DA:177,0
DA:178,0
DA:181,0
DA:182,0
DA:184,0
DA:185,0
DA:186,0
DA:187,0
DA:188,0
DA:189,0
DA:190,0
DA:191,0
DA:192,0
DA:193,0
DA:195,0
DA:196,0
DA:197,0
DA:198,0
DA:199,0
DA:201,0
DA:202,0
DA:203,0
DA:204,0
DA:205,0
DA:206,0
DA:209,0
DA:210,0
DA:211,0
DA:213,0
DA:214,0
DA:217,0
DA:218,0
DA:219,0
DA:220,0
DA:222,0
DA:223,0
DA:224,0
DA:225,0
DA:226,0
DA:227,0
DA:229,0
DA:230,0
DA:231,0
DA:233,0
DA:234,0
DA:237,0
DA:238,0
DA:239,0
DA:240,0
DA:241,0
DA:243,0
DA:244,0
DA:245,0
DA:246,0
DA:247,0
DA:248,0
DA:250,0
DA:251,0
DA:252,0
DA:253,0
DA:254,0
DA:255,0
DA:256,0
DA:258,0
DA:259,0
DA:260,0
DA:261,0
DA:262,0
DA:263,0
DA:264,0
DA:266,0
DA:267,0
DA:268,0
DA:269,0
DA:270,0
DA:271,0
DA:272,0
DA:273,0
DA:274,0
DA:275,0
DA:276,0
DA:277,0
DA:278,0
DA:279,0
DA:280,0
DA:281,0
DA:282,0
DA:283,0
DA:284,0
DA:285,0
DA:286,0
DA:287,0
DA:288,0
DA:290,0
DA:291,0
DA:292,0
DA:293,0
DA:294,0
DA:295,0
DA:296,0
DA:297,0
DA:298,0
DA:299,0
DA:300,0
DA:301,0
DA:302,0
DA:303,0
DA:305,0
DA:306,0
DA:307,0
DA:308,0
DA:309,0
DA:311,0
DA:312,0
DA:313,0
DA:314,0
DA:315,0
DA:316,0
DA:317,0
DA:318,0
DA:319,0
DA:320,0
DA:321,0
DA:322,0
DA:323,0
DA:324,0
DA:326,0
DA:328,0
DA:329,0
DA:330,0
DA:331,0
DA:332,0
DA:333,0
DA:334,0
DA:335,0
DA:336,0
DA:337,0
DA:338,0
DA:339,0
DA:340,0
DA:341,0
DA:342,0
DA:343,0
DA:344,0
DA:346,0
DA:347,0
DA:348,0
DA:349,0
DA:350,0
DA:351,0
DA:352,0
DA:354,0
DA:355,0
DA:356,0
DA:357,0
DA:358,0
DA:359,0
DA:360,0
DA:361,0
DA:362,0
DA:363,0
DA:364,0
DA:365,0
DA:366,0
DA:368,0
DA:369,0
DA:370,0
DA:371,0
DA:372,0
DA:373,0
DA:374,0
DA:375,0
DA:376,0
DA:377,0
DA:378,0
DA:379,0
DA:380,0
DA:381,0
DA:382,0
DA:383,0
DA:385,0
DA:386,0
DA:387,0
DA:388,0
DA:389,0
DA:390,0
DA:391,0
DA:392,0
DA:393,0
DA:394,0
DA:396,0
DA:397,0
DA:401,0
DA:402,0
DA:403,0
DA:405,0
DA:406,0
DA:407,0
DA:409,0
DA:442,0
DA:443,0
DA:444,0
DA:452,0
DA:458,0
DA:479,0
DA:539,0
DA:541,0
DA:592,0
DA:594,0
DA:595,0
DA:596,0
DA:598,0
DA:599,0
DA:600,0
DA:602,0
DA:603,0
DA:604,0
DA:605,0
DA:606,0
DA:607,0
DA:608,0
DA:610,0
DA:611,0
DA:612,0
DA:613,0
DA:615,0
DA:616,0
DA:617,0
DA:618,0
DA:620,0
DA:621,0
DA:622,0
DA:623,0
DA:624,0
DA:625,0
DA:626,0
DA:627,0
DA:628,0
DA:629,0
DA:631,0
DA:634,0
DA:638,0
DA:643,0
BRF:0
BRH:0
LF:275
LH:0
end_of_record
SF:/root/autodl-tmp/zjj/p/ditto-llm/crates/ditto-core/src/providers/openai_compatible/client.rs
FN:184,_RINvMNtNtCseXwexsNt0j5_10ditto_core9providers17openai_compatibleNtB3_16OpenAICompatible24upload_file_with_purposeNtNtCsdB7fS8jepxw_5alloc6string6StringB1N_EB7_
FN:190,_RNCINvMNtNtCseXwexsNt0j5_10ditto_core9providers17openai_compatibleNtB5_16OpenAICompatible24upload_file_with_purposeNtNtCsdB7fS8jepxw_5alloc6string6StringB1P_E0B9_
FN:196,_RNCNCINvMNtNtCseXwexsNt0j5_10ditto_core9providers17openai_compatibleNtB7_16OpenAICompatible24upload_file_with_purposeNtNtCsdB7fS8jepxw_5alloc6string6StringB1R_E00Bb_
FN:201,_RNCNvMNtNtCseXwexsNt0j5_10ditto_core9providers17openai_compatibleNtB4_16OpenAICompatible10list_files0B8_
FN:209,_RNCNvMNtNtCseXwexsNt0j5_10ditto_core9providers17openai_compatibleNtB4_16OpenAICompatible11delete_file0B8_
FN:145,_RNCNvMNtNtCseXwexsNt0j5_10ditto_core9providers17openai_compatibleNtB4_16OpenAICompatible11from_config0B8_
FN:218,_RNCNvMNtNtCseXwexsNt0j5_10ditto_core9providers17openai_compatibleNtB4_16OpenAICompatible13resolve_model0B8_
FN:205,_RNCNvMNtNtCseXwexsNt0j5_10ditto_core9providers17openai_compatibleNtB4_16OpenAICompatible13retrieve_file0B8_
FN:213,_RNCNvMNtNtCseXwexsNt0j5_10ditto_core9providers17openai_compatibleNtB4_16OpenAICompatible21download_file_content0B8_
FN:171,_RNvMNtNtCseXwexsNt0j5_10ditto_core9providers17openai_compatibleNtB2_16OpenAICompatible10apply_auth
FN:201,_RNvMNtNtCseXwexsNt0j5_10ditto_core9providers17openai_compatibleNtB2_16OpenAICompatible10list_files
FN:209,_RNvMNtNtCseXwexsNt0j5_10ditto_core9providers17openai_compatibleNtB2_16OpenAICompatible11delete_file
FN:145,_RNvMNtNtCseXwexsNt0j5_10ditto_core9providers17openai_compatibleNtB2_16OpenAICompatible11from_config
FN:277,_RNvMNtNtCseXwexsNt0j5_10ditto_core9providers17openai_compatibleNtB2_16OpenAICompatible11parse_usage
FN:217,_RNvMNtNtCseXwexsNt0j5_10ditto_core9providers17openai_compatibleNtB2_16OpenAICompatible13resolve_model
FN:205,_RNvMNtNtCseXwexsNt0j5_10ditto_core9providers17openai_compatibleNtB2_16OpenAICompatible13retrieve_file
FN:75,_RNvMNtNtCseXwexsNt0j5_10ditto_core9providers17openai_compatibleNtB2_16OpenAICompatible16with_http_client
FN:273,_RNvMNtNtCseXwexsNt0j5_10ditto_core9providers17openai_compatibleNtB2_16OpenAICompatible19parse_finish_reason
FN:175,_RNvMNtNtCseXwexsNt0j5_10ditto_core9providers17openai_compatibleNtB2_16OpenAICompatible20chat_completions_url
FN:165,_RNvMNtNtCseXwexsNt0j5_10ditto_core9providers17openai_compatibleNtB2_16OpenAICompatible21context_cache_profile
FN:213,_RNvMNtNtCseXwexsNt0j5_10ditto_core9providers17openai_compatibleNtB2_16OpenAICompatible21download_file_content
FN:230,_RNvMNtNtCseXwexsNt0j5_10ditto_core9providers17openai_compatibleNtB2_16OpenAICompatible24request_quirks_for_model
FN:253,_RNvMNtNtCseXwexsNt0j5_10ditto_core9providers17openai_compatibleNtB2_16OpenAICompatible27build_chat_completions_body
FN:109,_RNvMNtNtCseXwexsNt0j5_10ditto_core9providers17openai_compatibleNtB2_16OpenAICompatible30with_max_binary_response_bytes
FN:114,_RNvMNtNtCseXwexsNt0j5_10ditto_core9providers17openai_compatibleNtB2_16OpenAICompatible33with_prompt_cache_key_passthrough
FN:131,_RNvMNtNtCseXwexsNt0j5_10ditto_core9providers17openai_compatibleNtB2_16OpenAICompatible33with_tool_choice_required_support
FN:119,_RNvMNtNtCseXwexsNt0j5_10ditto_core9providers17openai_compatibleNtB2_16OpenAICompatible44with_tool_call_thought_signature_passthrough
FN:125,_RNvMNtNtCseXwexsNt0j5_10ditto_core9providers17openai_compatibleNtB2_16OpenAICompatible51with_assistant_tool_call_requires_reasoning_content
FN:104,_RINvMNtNtCseXwexsNt0j5_10ditto_core9providers17openai_compatibleNtB3_16OpenAICompatible10with_modelpEB7_
FN:179,_RINvMNtNtCseXwexsNt0j5_10ditto_core9providers17openai_compatibleNtB3_16OpenAICompatible11upload_filepEB7_
FN:80,_RINvMNtNtCseXwexsNt0j5_10ditto_core9providers17openai_compatibleNtB3_16OpenAICompatible13with_base_urlpEB7_
FN:137,_RINvMNtNtCseXwexsNt0j5_10ditto_core9providers17openai_compatibleNtB3_16OpenAICompatible28with_model_behavior_resolverpEB7_
FN:63,_RINvMNtNtCseXwexsNt0j5_10ditto_core9providers17openai_compatibleNtB3_16OpenAICompatible3newpEB7_
FN:179,_RNCINvMNtNtCseXwexsNt0j5_10ditto_core9providers17openai_compatibleNtB5_16OpenAICompatible11upload_filepE0B9_
FNDA:0,_RINvMNtNtCseXwexsNt0j5_10ditto_core9providers17openai_compatibleNtB3_16OpenAICompatible24upload_file_with_purposeNtNtCsdB7fS8jepxw_5alloc6string6StringB1N_EB7_
FNDA:0,_RNCINvMNtNtCseXwexsNt0j5_10ditto_core9providers17openai_compatibleNtB5_16OpenAICompatible24upload_file_with_purposeNtNtCsdB7fS8jepxw_5alloc6string6StringB1P_E0B9_
FNDA:0,_RNCNCINvMNtNtCseXwexsNt0j5_10ditto_core9providers17openai_compatibleNtB7_16OpenAICompatible24upload_file_with_purposeNtNtCsdB7fS8jepxw_5alloc6string6StringB1R_E00Bb_
FNDA:0,_RNCNvMNtNtCseXwexsNt0j5_10ditto_core9providers17openai_compatibleNtB4_16OpenAICompatible10list_files0B8_
FNDA:0,_RNCNvMNtNtCseXwexsNt0j5_10ditto_core9providers17openai_compatibleNtB4_16OpenAICompatible11delete_file0B8_
FNDA:0,_RNCNvMNtNtCseXwexsNt0j5_10ditto_core9providers17openai_compatibleNtB4_16OpenAICompatible11from_config0B8_
FNDA:0,_RNCNvMNtNtCseXwexsNt0j5_10ditto_core9providers17openai_compatibleNtB4_16OpenAICompatible13resolve_model0B8_
FNDA:0,_RNCNvMNtNtCseXwexsNt0j5_10ditto_core9providers17openai_compatibleNtB4_16OpenAICompatible13retrieve_file0B8_
FNDA:0,_RNCNvMNtNtCseXwexsNt0j5_10ditto_core9providers17openai_compatibleNtB4_16OpenAICompatible21download_file_content0B8_
FNDA:0,_RNvMNtNtCseXwexsNt0j5_10ditto_core9providers17openai_compatibleNtB2_16OpenAICompatible10apply_auth
FNDA:0,_RNvMNtNtCseXwexsNt0j5_10ditto_core9providers17openai_compatibleNtB2_16OpenAICompatible10list_files
FNDA:0,_RNvMNtNtCseXwexsNt0j5_10ditto_core9providers17openai_compatibleNtB2_16OpenAICompatible11delete_file
FNDA:0,_RNvMNtNtCseXwexsNt0j5_10ditto_core9providers17openai_compatibleNtB2_16OpenAICompatible11from_config
FNDA:0,_RNvMNtNtCseXwexsNt0j5_10ditto_core9providers17openai_compatibleNtB2_16OpenAICompatible11parse_usage
FNDA:0,_RNvMNtNtCseXwexsNt0j5_10ditto_core9providers17openai_compatibleNtB2_16OpenAICompatible13resolve_model
FNDA:0,_RNvMNtNtCseXwexsNt0j5_10ditto_core9providers17openai_compatibleNtB2_16OpenAICompatible13retrieve_file
FNDA:0,_RNvMNtNtCseXwexsNt0j5_10ditto_core9providers17openai_compatibleNtB2_16OpenAICompatible16with_http_client
FNDA:0,_RNvMNtNtCseXwexsNt0j5_10ditto_core9providers17openai_compatibleNtB2_16OpenAICompatible19parse_finish_reason
FNDA:0,_RNvMNtNtCseXwexsNt0j5_10ditto_core9providers17openai_compatibleNtB2_16OpenAICompatible20chat_completions_url
FNDA:0,_RNvMNtNtCseXwexsNt0j5_10ditto_core9providers17openai_compatibleNtB2_16OpenAICompatible21context_cache_profile
FNDA:0,_RNvMNtNtCseXwexsNt0j5_10ditto_core9providers17openai_compatibleNtB2_16OpenAICompatible21download_file_content
FNDA:0,_RNvMNtNtCseXwexsNt0j5_10ditto_core9providers17openai_compatibleNtB2_16OpenAICompatible24request_quirks_for_model
FNDA:0,_RNvMNtNtCseXwexsNt0j5_10ditto_core9providers17openai_compatibleNtB2_16OpenAICompatible27build_chat_completions_body
FNDA:0,_RNvMNtNtCseXwexsNt0j5_10ditto_core9providers17openai_compatibleNtB2_16OpenAICompatible30with_max_binary_response_bytes
FNDA:0,_RNvMNtNtCseXwexsNt0j5_10ditto_core9providers17openai_compatibleNtB2_16OpenAICompatible33with_prompt_cache_key_passthrough
FNDA:0,_RNvMNtNtCseXwexsNt0j5_10ditto_core9providers17openai_compatibleNtB2_16OpenAICompatible33with_tool_choice_required_support
FNDA:0,_RNvMNtNtCseXwexsNt0j5_10ditto_core9providers17openai_compatibleNtB2_16OpenAICompatible44with_tool_call_thought_signature_passthrough
FNDA:0,_RNvMNtNtCseXwexsNt0j5_10ditto_core9providers17openai_compatibleNtB2_16OpenAICompatible51with_assistant_tool_call_requires_reasoning_content
FNDA:0,_RINvMNtNtCseXwexsNt0j5_10ditto_core9providers17openai_compatibleNtB3_16OpenAICompatible10with_modelpEB7_
FNDA:0,_RINvMNtNtCseXwexsNt0j5_10ditto_core9providers17openai_compatibleNtB3_16OpenAICompatible11upload_filepEB7_
FNDA:0,_RINvMNtNtCseXwexsNt0j5_10ditto_core9providers17openai_compatibleNtB3_16OpenAICompatible13with_base_urlpEB7_
FNDA:0,_RINvMNtNtCseXwexsNt0j5_10ditto_core9providers17openai_compatibleNtB3_16OpenAICompatible28with_model_behavior_resolverpEB7_
FNDA:0,_RINvMNtNtCseXwexsNt0j5_10ditto_core9providers17openai_compatibleNtB3_16OpenAICompatible3newpEB7_
FNDA:0,_RNCINvMNtNtCseXwexsNt0j5_10ditto_core9providers17openai_compatibleNtB5_16OpenAICompatible11upload_filepE0B9_
FNF:34
FNH:0
DA:63,0
DA:64,0
DA:65,0
DA:66,0
DA:67,0
DA:68,0
DA:69,0
DA:70,0
DA:71,0
DA:72,0
DA:73,0
DA:75,0
DA:76,0
DA:77,0
DA:78,0
DA:80,0
DA:81,0
DA:82,0
DA:83,0
DA:84,0
DA:85,0
DA:86,0
DA:88,0
DA:89,0
DA:90,0
DA:91,0
DA:92,0
DA:93,0
DA:94,0
DA:95,0
DA:96,0
DA:97,0
DA:98,0
DA:99,0
DA:100,0
DA:101,0
DA:102,0
DA:104,0
DA:105,0
DA:106,0
DA:107,0
DA:109,0
DA:110,0
DA:111,0
DA:112,0
DA:114,0
DA:115,0
DA:116,0
DA:117,0
DA:119,0
DA:120,0
DA:121,0
DA:122,0
DA:123,0
DA:125,0
DA:126,0
DA:127,0
DA:128,0
DA:129,0
DA:131,0
DA:132,0
DA:133,0
DA:134,0
DA:137,0
DA:138,0
DA:139,0
DA:141,0
DA:142,0
DA:143,0
DA:145,0
DA:147,0
DA:148,0
DA:149,0
DA:150,0
DA:151,0
DA:152,0
DA:154,0
DA:155,0
DA:156,0
DA:157,0
DA:158,0
DA:159,0
DA:160,0
DA:161,0
DA:162,0
DA:163,0
DA:165,0
DA:166,0
DA:167,0
DA:168,0
DA:169,0
DA:171,0
DA:172,0
DA:173,0
DA:175,0
DA:176,0
DA:177,0
DA:179,0
DA:180,0
DA:181,0
DA:182,0
DA:184,0
DA:185,0
DA:186,0
DA:187,0
DA:188,0
DA:189,0
DA:190,0
DA:191,0
DA:192,0
DA:193,0
DA:194,0
DA:195,0
DA:196,0
DA:198,0
DA:199,0
DA:201,0
DA:202,0
DA:203,0
DA:205,0
DA:206,0
DA:207,0
DA:209,0
DA:210,0
DA:211,0
DA:213,0
DA:214,0
DA:215,0
DA:217,0
DA:218,0
DA:219,0
DA:220,0
DA:221,0
DA:222,0
DA:223,0
DA:224,0
DA:225,0
DA:226,0
DA:227,0
DA:228,0
DA:230,0
DA:231,0
DA:232,0
DA:233,0
DA:234,0
DA:235,0
DA:237,0
DA:253,0
DA:254,0
DA:255,0
DA:256,0
DA:257,0
DA:258,0
DA:259,0
DA:260,0
DA:261,0
DA:262,0
DA:263,0
DA:264,0
DA:265,0
DA:266,0
DA:267,0
DA:268,0
DA:269,0
DA:271,0
DA:273,0
DA:274,0
DA:275,0
DA:277,0
DA:278,0
DA:279,0
BRF:0
BRH:0
LF:180
LH:0
end_of_record
SF:/root/autodl-tmp/zjj/p/ditto-llm/crates/ditto-core/src/providers/openai_compatible/files.rs
FN:20,_RNvXs0_NtNtCseXwexsNt0j5_10ditto_core9providers17openai_compatibleNtB5_16OpenAICompatibleNtNtNtB9_12capabilities4file10FileClient10list_files
FN:34,_RNvXs0_NtNtCseXwexsNt0j5_10ditto_core9providers17openai_compatibleNtB5_16OpenAICompatibleNtNtNtB9_12capabilities4file10FileClient11delete_file
FN:3,_RNvXs0_NtNtCseXwexsNt0j5_10ditto_core9providers17openai_compatibleNtB5_16OpenAICompatibleNtNtNtB9_12capabilities4file10FileClient13provider_name
FN:27,_RNvXs0_NtNtCseXwexsNt0j5_10ditto_core9providers17openai_compatibleNtB5_16OpenAICompatibleNtNtNtB9_12capabilities4file10FileClient13retrieve_file
FN:41,_RNvXs0_NtNtCseXwexsNt0j5_10ditto_core9providers17openai_compatibleNtB5_16OpenAICompatibleNtNtNtB9_12capabilities4file10FileClient21download_file_content
FN:10,_RNvXs0_NtNtCseXwexsNt0j5_10ditto_core9providers17openai_compatibleNtB5_16OpenAICompatibleNtNtNtB9_12capabilities4file10FileClient24upload_file_with_purpose
FNDA:0,_RNvXs0_NtNtCseXwexsNt0j5_10ditto_core9providers17openai_compatibleNtB5_16OpenAICompatibleNtNtNtB9_12capabilities4file10FileClient10list_files
FNDA:0,_RNvXs0_NtNtCseXwexsNt0j5_10ditto_core9providers17openai_compatibleNtB5_16OpenAICompatibleNtNtNtB9_12capabilities4file10FileClient11delete_file
FNDA:0,_RNvXs0_NtNtCseXwexsNt0j5_10ditto_core9providers17openai_compatibleNtB5_16OpenAICompatibleNtNtNtB9_12capabilities4file10FileClient13provider_name
FNDA:0,_RNvXs0_NtNtCseXwexsNt0j5_10ditto_core9providers17openai_compatibleNtB5_16OpenAICompatibleNtNtNtB9_12capabilities4file10FileClient13retrieve_file
FNDA:0,_RNvXs0_NtNtCseXwexsNt0j5_10ditto_core9providers17openai_compatibleNtB5_16OpenAICompatibleNtNtNtB9_12capabilities4file10FileClient21download_file_content
FNDA:0,_RNvXs0_NtNtCseXwexsNt0j5_10ditto_core9providers17openai_compatibleNtB5_16OpenAICompatibleNtNtNtB9_12capabilities4file10FileClient24upload_file_with_purpose
FNF:6
FNH:0
DA:3,0
DA:4,0
DA:5,0
DA:10,0
DA:18,0
DA:20,0
DA:22,0
DA:27,0
DA:29,0
DA:34,0
DA:36,0
DA:41,0
DA:43,0
BRF:0
BRH:0
LF:13
LH:0
end_of_record
SF:/root/autodl-tmp/zjj/p/ditto-llm/crates/ditto-core/src/providers/openai_compatible/provider_options_schema.rs
FN:4,_RNvNtNtCseXwexsNt0j5_10ditto_core9providers17openai_compatible47apply_openai_compatible_provider_options_schema
FNDA:0,_RNvNtNtCseXwexsNt0j5_10ditto_core9providers17openai_compatible47apply_openai_compatible_provider_options_schema
FNF:1
FNH:0
DA:4,0
DA:5,0
DA:6,0
DA:7,0
DA:8,0
DA:9,0
DA:10,0
DA:11,0
DA:12,0
DA:13,0
DA:14,0
DA:16,0
BRF:0
BRH:0
LF:12
LH:0
end_of_record
SF:/root/autodl-tmp/zjj/p/ditto-llm/crates/ditto-core/src/providers/openai_like.rs
FN:89,_RINvMNtNtCseXwexsNt0j5_10ditto_core9providers11openai_likeNtB3_16OpenAiLikeClient10with_modelNtNtCsdB7fS8jepxw_5alloc6string6StringEB7_
FN:84,_RINvMNtNtCseXwexsNt0j5_10ditto_core9providers11openai_likeNtB3_16OpenAiLikeClient13with_base_urlNtNtCsdB7fS8jepxw_5alloc6string6StringEB7_
FN:64,_RINvMNtNtCseXwexsNt0j5_10ditto_core9providers11openai_likeNtB3_16OpenAiLikeClient3newReEB7_
FN:296,_RNCNCNvNtNtCseXwexsNt0j5_10ditto_core9providers11openai_like21download_file_content00B9_
FN:302,_RNCNCNvNtNtCseXwexsNt0j5_10ditto_core9providers11openai_like21download_file_content0s0_0B9_
FN:297,_RNCNCNvNtNtCseXwexsNt0j5_10ditto_core9providers11openai_like21download_file_content0s_0B9_
FN:226,_RNCNCNvNtNtCseXwexsNt0j5_10ditto_core9providers11openai_like24upload_file_with_purpose00B9_
FN:179,_RNCNvMNtNtCseXwexsNt0j5_10ditto_core9providers11openai_likeNtB4_16OpenAiLikeClient10list_files0B8_
FN:194,_RNCNvMNtNtCseXwexsNt0j5_10ditto_core9providers11openai_likeNtB4_16OpenAiLikeClient11delete_file0B8_
FN:189,_RNCNvMNtNtCseXwexsNt0j5_10ditto_core9providers11openai_likeNtB4_16OpenAiLikeClient13retrieve_file0B8_
FN:133,_RNCNvMNtNtCseXwexsNt0j5_10ditto_core9providers11openai_likeNtB4_16OpenAiLikeClient20from_config_optional0B8_
FN:199,_RNCNvMNtNtCseXwexsNt0j5_10ditto_core9providers11openai_likeNtB4_16OpenAiLikeClient21download_file_content0B8_
FN:168,_RNCNvMNtNtCseXwexsNt0j5_10ditto_core9providers11openai_likeNtB4_16OpenAiLikeClient24upload_file_with_purpose0B8_
FN:248,_RNCNvNtNtCseXwexsNt0j5_10ditto_core9providers11openai_like10list_files0B7_
FN:276,_RNCNvNtNtCseXwexsNt0j5_10ditto_core9providers11openai_like11delete_file0B7_
FN:265,_RNCNvNtNtCseXwexsNt0j5_10ditto_core9providers11openai_like13retrieve_file0B7_
FN:288,_RNCNvNtNtCseXwexsNt0j5_10ditto_core9providers11openai_like21download_file_content0B7_
FN:218,_RNCNvNtNtCseXwexsNt0j5_10ditto_core9providers11openai_like24upload_file_with_purpose0B7_
FN:157,_RNvMNtNtCseXwexsNt0j5_10ditto_core9providers11openai_likeNtB2_16OpenAiLikeClient10apply_auth
FN:179,_RNvMNtNtCseXwexsNt0j5_10ditto_core9providers11openai_likeNtB2_16OpenAiLikeClient10list_files
FN:194,_RNvMNtNtCseXwexsNt0j5_10ditto_core9providers11openai_likeNtB2_16OpenAiLikeClient11delete_file
FN:189,_RNvMNtNtCseXwexsNt0j5_10ditto_core9providers11openai_likeNtB2_16OpenAiLikeClient13retrieve_file
FN:79,_RNvMNtNtCseXwexsNt0j5_10ditto_core9providers11openai_likeNtB2_16OpenAiLikeClient16with_http_client
FN:129,_RNvMNtNtCseXwexsNt0j5_10ditto_core9providers11openai_likeNtB2_16OpenAiLikeClient20from_config_optional
FN:100,_RNvMNtNtCseXwexsNt0j5_10ditto_core9providers11openai_likeNtB2_16OpenAiLikeClient20from_config_required
FN:199,_RNvMNtNtCseXwexsNt0j5_10ditto_core9providers11openai_likeNtB2_16OpenAiLikeClient21download_file_content
FN:165,_RNvMNtNtCseXwexsNt0j5_10ditto_core9providers11openai_likeNtB2_16OpenAiLikeClient24upload_file_with_purpose
FN:94,_RNvMNtNtCseXwexsNt0j5_10ditto_core9providers11openai_likeNtB2_16OpenAiLikeClient30with_max_binary_response_bytes
FN:161,_RNvMNtNtCseXwexsNt0j5_10ditto_core9providers11openai_likeNtB2_16OpenAiLikeClient8endpoint
FN:41,_RNvNtNtCseXwexsNt0j5_10ditto_core9providers11openai_like10apply_auth
FN:243,_RNvNtNtCseXwexsNt0j5_10ditto_core9providers11openai_like10list_files
FN:271,_RNvNtNtCseXwexsNt0j5_10ditto_core9providers11openai_like11delete_file
FN:20,_RNvNtNtCseXwexsNt0j5_10ditto_core9providers11openai_like13join_endpoint
FN:260,_RNvNtNtCseXwexsNt0j5_10ditto_core9providers11openai_like13retrieve_file
FN:34,_RNvNtNtCseXwexsNt0j5_10ditto_core9providers11openai_like17auth_from_api_key
FN:30,_RNvNtNtCseXwexsNt0j5_10ditto_core9providers11openai_like19default_http_client
FN:282,_RNvNtNtCseXwexsNt0j5_10ditto_core9providers11openai_like21download_file_content
FN:212,_RNvNtNtCseXwexsNt0j5_10ditto_core9providers11openai_like24upload_file_with_purpose
FN:104,_RNCNvMNtNtCseXwexsNt0j5_10ditto_core9providers11openai_likeNtB4_16OpenAiLikeClient20from_config_required0B8_
FNDA:0,_RINvMNtNtCseXwexsNt0j5_10ditto_core9providers11openai_likeNtB3_16OpenAiLikeClient10with_modelNtNtCsdB7fS8jepxw_5alloc6string6StringEB7_
FNDA:0,_RINvMNtNtCseXwexsNt0j5_10ditto_core9providers11openai_likeNtB3_16OpenAiLikeClient13with_base_urlNtNtCsdB7fS8jepxw_5alloc6string6StringEB7_
FNDA:0,_RINvMNtNtCseXwexsNt0j5_10ditto_core9providers11openai_likeNtB3_16OpenAiLikeClient3newReEB7_
FNDA:0,_RNCNCNvNtNtCseXwexsNt0j5_10ditto_core9providers11openai_like21download_file_content00B9_
FNDA:0,_RNCNCNvNtNtCseXwexsNt0j5_10ditto_core9providers11openai_like21download_file_content0s0_0B9_
FNDA:0,_RNCNCNvNtNtCseXwexsNt0j5_10ditto_core9providers11openai_like21download_file_content0s_0B9_
FNDA:0,_RNCNCNvNtNtCseXwexsNt0j5_10ditto_core9providers11openai_like24upload_file_with_purpose00B9_
FNDA:0,_RNCNvMNtNtCseXwexsNt0j5_10ditto_core9providers11openai_likeNtB4_16OpenAiLikeClient10list_files0B8_
FNDA:0,_RNCNvMNtNtCseXwexsNt0j5_10ditto_core9providers11openai_likeNtB4_16OpenAiLikeClient11delete_file0B8_
FNDA:0,_RNCNvMNtNtCseXwexsNt0j5_10ditto_core9providers11openai_likeNtB4_16OpenAiLikeClient13retrieve_file0B8_
FNDA:0,_RNCNvMNtNtCseXwexsNt0j5_10ditto_core9providers11openai_likeNtB4_16OpenAiLikeClient20from_config_optional0B8_
FNDA:0,_RNCNvMNtNtCseXwexsNt0j5_10ditto_core9providers11openai_likeNtB4_16OpenAiLikeClient21download_file_content0B8_
FNDA:0,_RNCNvMNtNtCseXwexsNt0j5_10ditto_core9providers11openai_likeNtB4_16OpenAiLikeClient24upload_file_with_purpose0B8_
FNDA:0,_RNCNvNtNtCseXwexsNt0j5_10ditto_core9providers11openai_like10list_files0B7_
FNDA:0,_RNCNvNtNtCseXwexsNt0j5_10ditto_core9providers11openai_like11delete_file0B7_
FNDA:0,_RNCNvNtNtCseXwexsNt0j5_10ditto_core9providers11openai_like13retrieve_file0B7_
FNDA:0,_RNCNvNtNtCseXwexsNt0j5_10ditto_core9providers11openai_like21download_file_content0B7_
FNDA:0,_RNCNvNtNtCseXwexsNt0j5_10ditto_core9providers11openai_like24upload_file_with_purpose0B7_
FNDA:0,_RNvMNtNtCseXwexsNt0j5_10ditto_core9providers11openai_likeNtB2_16OpenAiLikeClient10apply_auth
FNDA:0,_RNvMNtNtCseXwexsNt0j5_10ditto_core9providers11openai_likeNtB2_16OpenAiLikeClient10list_files
FNDA:0,_RNvMNtNtCseXwexsNt0j5_10ditto_core9providers11openai_likeNtB2_16OpenAiLikeClient11delete_file
FNDA:0,_RNvMNtNtCseXwexsNt0j5_10ditto_core9providers11openai_likeNtB2_16OpenAiLikeClient13retrieve_file
FNDA:0,_RNvMNtNtCseXwexsNt0j5_10ditto_core9providers11openai_likeNtB2_16OpenAiLikeClient16with_http_client
FNDA:0,_RNvMNtNtCseXwexsNt0j5_10ditto_core9providers11openai_likeNtB2_16OpenAiLikeClient20from_config_optional
FNDA:0,_RNvMNtNtCseXwexsNt0j5_10ditto_core9providers11openai_likeNtB2_16OpenAiLikeClient20from_config_required
FNDA:0,_RNvMNtNtCseXwexsNt0j5_10ditto_core9providers11openai_likeNtB2_16OpenAiLikeClient21download_file_content
FNDA:0,_RNvMNtNtCseXwexsNt0j5_10ditto_core9providers11openai_likeNtB2_16OpenAiLikeClient24upload_file_with_purpose
FNDA:0,_RNvMNtNtCseXwexsNt0j5_10ditto_core9providers11openai_likeNtB2_16OpenAiLikeClient30with_max_binary_response_bytes
FNDA:0,_RNvMNtNtCseXwexsNt0j5_10ditto_core9providers11openai_likeNtB2_16OpenAiLikeClient8endpoint
FNDA:0,_RNvNtNtCseXwexsNt0j5_10ditto_core9providers11openai_like10apply_auth
FNDA:0,_RNvNtNtCseXwexsNt0j5_10ditto_core9providers11openai_like10list_files
FNDA:0,_RNvNtNtCseXwexsNt0j5_10ditto_core9providers11openai_like11delete_file
FNDA:0,_RNvNtNtCseXwexsNt0j5_10ditto_core9providers11openai_like13join_endpoint
FNDA:0,_RNvNtNtCseXwexsNt0j5_10ditto_core9providers11openai_like13retrieve_file
FNDA:0,_RNvNtNtCseXwexsNt0j5_10ditto_core9providers11openai_like17auth_from_api_key
FNDA:0,_RNvNtNtCseXwexsNt0j5_10ditto_core9providers11openai_like19default_http_client
FNDA:0,_RNvNtNtCseXwexsNt0j5_10ditto_core9providers11openai_like21download_file_content
FNDA:0,_RNvNtNtCseXwexsNt0j5_10ditto_core9providers11openai_like24upload_file_with_purpose
FNDA:0,_RNCNvMNtNtCseXwexsNt0j5_10ditto_core9providers11openai_likeNtB4_16OpenAiLikeClient20from_config_required0B8_
FNF:39
FNH:0
DA:20,0
DA:21,0
DA:22,0
DA:23,0
DA:24,0
DA:26,0
DA:28,0
DA:30,0
DA:31,0
DA:32,0
DA:34,0
DA:35,0
DA:36,0
DA:37,0
DA:38,0
DA:39,0
DA:41,0
DA:42,0
DA:43,0
DA:44,0
DA:45,0
DA:46,0
DA:47,0
DA:48,0
DA:50,0
DA:51,0
DA:64,0
DA:65,0
DA:66,0
DA:67,0
DA:69,0
DA:70,0
DA:71,0
DA:72,0
DA:73,0
DA:74,0
DA:75,0
DA:76,0
DA:77,0
DA:79,0
DA:80,0
DA:81,0
DA:82,0
DA:84,0
DA:85,0
DA:86,0
DA:87,0
DA:89,0
DA:90,0
DA:91,0
DA:92,0
DA:94,0
DA:95,0
DA:96,0
DA:97,0
DA:100,0
DA:101,0
DA:102,0
DA:103,0
DA:104,0
DA:105,0
DA:106,0
DA:107,0
DA:108,0
DA:109,0
DA:110,0
DA:111,0
DA:112,0
DA:113,0
DA:115,0
DA:116,0
DA:117,0
DA:118,0
DA:119,0
DA:120,0
DA:122,0
DA:123,0
DA:124,0
DA:125,0
DA:126,0
DA:129,0
DA:130,0
DA:131,0
DA:132,0
DA:133,0
DA:134,0
DA:135,0
DA:136,0
DA:137,0
DA:138,0
DA:139,0
DA:140,0
DA:141,0
DA:142,0
DA:144,0
DA:145,0
DA:146,0
DA:147,0
DA:148,0
DA:149,0
DA:151,0
DA:152,0
DA:153,0
DA:154,0
DA:155,0
DA:157,0
DA:158,0
DA:159,0
DA:161,0
DA:162,0
DA:163,0
DA:165,0
DA:166,0
DA:167,0
DA:168,0
DA:169,0
DA:170,0
DA:171,0
DA:172,0
DA:173,0
DA:174,0
DA:175,0
DA:176,0
DA:177,0
DA:179,0
DA:180,0
DA:181,0
DA:182,0
DA:183,0
DA:184,0
DA:185,0
DA:186,0
DA:187,0
DA:189,0
DA:190,0
DA:191,0
DA:192,0
DA:194,0
DA:195,0
DA:196,0
DA:197,0
DA:199,0
DA:200,0
DA:201,0
DA:202,0
DA:203,0
DA:204,0
DA:205,0
DA:206,0
DA:207,0
DA:208,0
DA:209,0
DA:212,0
DA:213,0
DA:214,0
DA:215,0
DA:216,0
DA:217,0
DA:218,0
DA:224,0
DA:225,0
DA:226,0
DA:227,0
DA:228,0
DA:229,0
DA:231,0
DA:232,0
DA:233,0
DA:235,0
DA:236,0
DA:237,0
DA:238,0
DA:239,0
DA:240,0
DA:241,0
DA:243,0
DA:244,0
DA:245,0
DA:246,0
DA:247,0
DA:248,0
DA:254,0
DA:255,0
DA:256,0
DA:257,0
DA:258,0
DA:260,0
DA:261,0
DA:262,0
DA:263,0
DA:264,0
DA:265,0
DA:266,0
DA:267,0
DA:268,0
DA:269,0
DA:271,0
DA:272,0
DA:273,0
DA:274,0
DA:275,0
DA:276,0
DA:277,0
DA:278,0
DA:279,0
DA:280,0
DA:282,0
DA:283,0
DA:284,0
DA:285,0
DA:286,0
DA:287,0
DA:288,0
DA:289,0
DA:290,0
DA:291,0
DA:293,0
DA:294,0
DA:295,0
DA:296,0
DA:297,0
DA:298,0
DA:299,0
DA:300,0
DA:301,0
DA:302,0
DA:303,0
DA:304,0
DA:305,0
DA:306,0
DA:307,0
DA:309,0
DA:310,0
BRF:0
BRH:0
LF:251
LH:0
end_of_record
SF:/root/autodl-tmp/zjj/p/ditto-llm/crates/ditto-core/src/runtime/builder_backends.rs
FN:647,_RNCNCNvNtNtCseXwexsNt0j5_10ditto_core7runtime16builder_backends25build_context_cache_model00B9_
FN:657,_RNCNCNvNtNtCseXwexsNt0j5_10ditto_core7runtime16builder_backends25build_context_cache_model0s0_0B9_
FN:648,_RNCNCNvNtNtCseXwexsNt0j5_10ditto_core7runtime16builder_backends25build_context_cache_model0s_0B9_
FN:579,_RNCNvNtNtCseXwexsNt0j5_10ditto_core7runtime16builder_backends17build_file_client0B7_
FN:514,_RNCNvNtNtCseXwexsNt0j5_10ditto_core7runtime16builder_backends18build_batch_client0B7_
FN:554,_RNCNvNtNtCseXwexsNt0j5_10ditto_core7runtime16builder_backends18build_rerank_model0B7_
FN:471,_RNCNvNtNtCseXwexsNt0j5_10ditto_core7runtime16builder_backends18build_speech_model0B7_
FN:27,_RNCNvNtNtCseXwexsNt0j5_10ditto_core7runtime16builder_backends20build_language_model0B7_
FN:141,_RNCNvNtNtCseXwexsNt0j5_10ditto_core7runtime16builder_backends21build_embedding_model0B7_
FN:306,_RNCNvNtNtCseXwexsNt0j5_10ditto_core7runtime16builder_backends22build_image_edit_model0B7_
FN:212,_RNCNvNtNtCseXwexsNt0j5_10ditto_core7runtime16builder_backends22build_moderation_model0B7_
FN:641,_RNCNvNtNtCseXwexsNt0j5_10ditto_core7runtime16builder_backends25build_context_cache_model0B7_
FN:252,_RNCNvNtNtCseXwexsNt0j5_10ditto_core7runtime16builder_backends28build_image_generation_model0B7_
FN:388,_RNCNvNtNtCseXwexsNt0j5_10ditto_core7runtime16builder_backends28build_realtime_session_model0B7_
FN:349,_RNCNvNtNtCseXwexsNt0j5_10ditto_core7runtime16builder_backends28build_video_generation_model0B7_
FN:427,_RNCNvNtNtCseXwexsNt0j5_10ditto_core7runtime16builder_backends31build_audio_transcription_model0B7_
FN:576,_RNvNtNtCseXwexsNt0j5_10ditto_core7runtime16builder_backends17build_file_client
FN:511,_RNvNtNtCseXwexsNt0j5_10ditto_core7runtime16builder_backends18build_batch_client
FN:551,_RNvNtNtCseXwexsNt0j5_10ditto_core7runtime16builder_backends18build_rerank_model
FN:468,_RNvNtNtCseXwexsNt0j5_10ditto_core7runtime16builder_backends18build_speech_model
FN:24,_RNvNtNtCseXwexsNt0j5_10ditto_core7runtime16builder_backends20build_language_model
FN:138,_RNvNtNtCseXwexsNt0j5_10ditto_core7runtime16builder_backends21build_embedding_model
FN:303,_RNvNtNtCseXwexsNt0j5_10ditto_core7runtime16builder_backends22build_image_edit_model
FN:209,_RNvNtNtCseXwexsNt0j5_10ditto_core7runtime16builder_backends22build_moderation_model
FN:638,_RNvNtNtCseXwexsNt0j5_10ditto_core7runtime16builder_backends25build_context_cache_model
FN:249,_RNvNtNtCseXwexsNt0j5_10ditto_core7runtime16builder_backends28build_image_generation_model
FN:385,_RNvNtNtCseXwexsNt0j5_10ditto_core7runtime16builder_backends28build_realtime_session_model
FN:346,_RNvNtNtCseXwexsNt0j5_10ditto_core7runtime16builder_backends28build_video_generation_model
FN:424,_RNvNtNtCseXwexsNt0j5_10ditto_core7runtime16builder_backends31build_audio_transcription_model
FN:633,_RNvXNtNtCseXwexsNt0j5_10ditto_core7runtime16builder_backendsNtB2_26CatalogContextCacheAdapterNtNtNtB6_12capabilities13context_cache17ContextCacheModel21context_cache_profile
FN:629,_RNvXNtNtCseXwexsNt0j5_10ditto_core7runtime16builder_backendsNtB2_26CatalogContextCacheAdapterNtNtNtB6_12capabilities13context_cache17ContextCacheModel8model_id
FN:625,_RNvXNtNtCseXwexsNt0j5_10ditto_core7runtime16builder_backendsNtB2_26CatalogContextCacheAdapterNtNtNtB6_12capabilities13context_cache17ContextCacheModel8provider
FNDA:0,_RNCNCNvNtNtCseXwexsNt0j5_10ditto_core7runtime16builder_backends25build_context_cache_model00B9_
FNDA:0,_RNCNCNvNtNtCseXwexsNt0j5_10ditto_core7runtime16builder_backends25build_context_cache_model0s0_0B9_
FNDA:0,_RNCNCNvNtNtCseXwexsNt0j5_10ditto_core7runtime16builder_backends25build_context_cache_model0s_0B9_
FNDA:0,_RNCNvNtNtCseXwexsNt0j5_10ditto_core7runtime16builder_backends17build_file_client0B7_
FNDA:0,_RNCNvNtNtCseXwexsNt0j5_10ditto_core7runtime16builder_backends18build_batch_client0B7_
FNDA:0,_RNCNvNtNtCseXwexsNt0j5_10ditto_core7runtime16builder_backends18build_rerank_model0B7_
FNDA:0,_RNCNvNtNtCseXwexsNt0j5_10ditto_core7runtime16builder_backends18build_speech_model0B7_
FNDA:0,_RNCNvNtNtCseXwexsNt0j5_10ditto_core7runtime16builder_backends20build_language_model0B7_
FNDA:0,_RNCNvNtNtCseXwexsNt0j5_10ditto_core7runtime16builder_backends21build_embedding_model0B7_
FNDA:0,_RNCNvNtNtCseXwexsNt0j5_10ditto_core7runtime16builder_backends22build_image_edit_model0B7_
FNDA:0,_RNCNvNtNtCseXwexsNt0j5_10ditto_core7runtime16builder_backends22build_moderation_model0B7_
FNDA:0,_RNCNvNtNtCseXwexsNt0j5_10ditto_core7runtime16builder_backends25build_context_cache_model0B7_
FNDA:0,_RNCNvNtNtCseXwexsNt0j5_10ditto_core7runtime16builder_backends28build_image_generation_model0B7_
FNDA:0,_RNCNvNtNtCseXwexsNt0j5_10ditto_core7runtime16builder_backends28build_realtime_session_model0B7_
FNDA:0,_RNCNvNtNtCseXwexsNt0j5_10ditto_core7runtime16builder_backends28build_video_generation_model0B7_
FNDA:0,_RNCNvNtNtCseXwexsNt0j5_10ditto_core7runtime16builder_backends31build_audio_transcription_model0B7_
FNDA:0,_RNvNtNtCseXwexsNt0j5_10ditto_core7runtime16builder_backends17build_file_client
FNDA:0,_RNvNtNtCseXwexsNt0j5_10ditto_core7runtime16builder_backends18build_batch_client
FNDA:0,_RNvNtNtCseXwexsNt0j5_10ditto_core7runtime16builder_backends18build_rerank_model
FNDA:0,_RNvNtNtCseXwexsNt0j5_10ditto_core7runtime16builder_backends18build_speech_model
FNDA:0,_RNvNtNtCseXwexsNt0j5_10ditto_core7runtime16builder_backends20build_language_model
FNDA:0,_RNvNtNtCseXwexsNt0j5_10ditto_core7runtime16builder_backends21build_embedding_model
FNDA:0,_RNvNtNtCseXwexsNt0j5_10ditto_core7runtime16builder_backends22build_image_edit_model
FNDA:0,_RNvNtNtCseXwexsNt0j5_10ditto_core7runtime16builder_backends22build_moderation_model
FNDA:0,_RNvNtNtCseXwexsNt0j5_10ditto_core7runtime16builder_backends25build_context_cache_model
FNDA:0,_RNvNtNtCseXwexsNt0j5_10ditto_core7runtime16builder_backends28build_image_generation_model
FNDA:0,_RNvNtNtCseXwexsNt0j5_10ditto_core7runtime16builder_backends28build_realtime_session_model
FNDA:0,_RNvNtNtCseXwexsNt0j5_10ditto_core7runtime16builder_backends28build_video_generation_model
FNDA:0,_RNvNtNtCseXwexsNt0j5_10ditto_core7runtime16builder_backends31build_audio_transcription_model
FNDA:0,_RNvXNtNtCseXwexsNt0j5_10ditto_core7runtime16builder_backendsNtB2_26CatalogContextCacheAdapterNtNtNtB6_12capabilities13context_cache17ContextCacheModel21context_cache_profile
FNDA:0,_RNvXNtNtCseXwexsNt0j5_10ditto_core7runtime16builder_backendsNtB2_26CatalogContextCacheAdapterNtNtNtB6_12capabilities13context_cache17ContextCacheModel8model_id
FNDA:0,_RNvXNtNtCseXwexsNt0j5_10ditto_core7runtime16builder_backendsNtB2_26CatalogContextCacheAdapterNtNtNtB6_12capabilities13context_cache17ContextCacheModel8provider
FNF:32
FNH:0
DA:24,0
DA:25,0
DA:26,0
DA:27,0
DA:28,0
DA:29,0
DA:30,0
DA:31,0
DA:40,0
DA:41,0
DA:42,0
DA:45,0
DA:48,0
DA:49,0
DA:50,0
DA:51,0
DA:52,0
DA:62,0
DA:71,0
DA:72,0
DA:73,0
DA:76,0
DA:85,0
DA:86,0
DA:87,0
DA:90,0
DA:99,0
DA:100,0
DA:101,0
DA:104,0
DA:113,0
DA:114,0
DA:115,0
DA:118,0
DA:127,0
DA:128,0
DA:129,0
DA:132,0
DA:133,0
DA:134,0
DA:136,0
DA:138,0
DA:139,0
DA:140,0
DA:141,0
DA:142,0
DA:143,0
DA:144,0
DA:145,0
DA:154,0
DA:155,0
DA:156,0
DA:159,0
DA:171,0
DA:172,0
DA:173,0
DA:174,0
DA:177,0
DA:186,0
DA:187,0
DA:188,0
DA:191,0
DA:200,0
DA:201,0
DA:202,0
DA:205,0
DA:207,0
DA:209,0
DA:210,0
DA:211,0
DA:212,0
DA:213,0
DA:214,0
DA:215,0
DA:216,0
DA:225,0
DA:226,0
DA:227,0
DA:230,0
DA:239,0
DA:240,0
DA:241,0
DA:242,0
DA:245,0
DA:247,0
DA:249,0
DA:250,0
DA:251,0
DA:252,0
DA:253,0
DA:254,0
DA:255,0
DA:256,0
DA:265,0
DA:266,0
DA:267,0
DA:270,0
DA:279,0
DA:280,0
DA:281,0
DA:282,0
DA:285,0
DA:294,0
DA:295,0
DA:296,0
DA:299,0
DA:301,0
DA:303,0
DA:304,0
DA:305,0
DA:306,0
DA:307,0
DA:308,0
DA:309,0
DA:310,0
DA:319,0
DA:320,0
DA:321,0
DA:324,0
DA:336,0
DA:337,0
DA:338,0
DA:339,0
DA:342,0
DA:344,0
DA:346,0
DA:347,0
DA:348,0
DA:349,0
DA:350,0
DA:351,0
DA:352,0
DA:353,0
DA:362,0
DA:363,0
DA:364,0
DA:367,0
DA:376,0
DA:377,0
DA:378,0
DA:381,0
DA:383,0
DA:385,0
DA:386,0
DA:387,0
DA:388,0
DA:389,0
DA:390,0
DA:391,0
DA:392,0
DA:401,0
DA:402,0
DA:403,0
DA:406,0
DA:415,0
DA:416,0
DA:417,0
DA:420,0
DA:422,0
DA:424,0
DA:425,0
DA:426,0
DA:427,0
DA:428,0
DA:429,0
DA:430,0
DA:431,0
DA:441,0
DA:442,0
DA:443,0
DA:446,0
DA:458,0
DA:459,0
DA:460,0
DA:461,0
DA:464,0
DA:466,0
DA:468,0
DA:469,0
DA:470,0
DA:471,0
DA:472,0
DA:473,0
DA:474,0
DA:475,0
DA:484,0
DA:485,0
DA:486,0
DA:489,0
DA:501,0
DA:502,0
DA:503,0
DA:504,0
DA:507,0
DA:509,0
DA:511,0
DA:512,0
DA:513,0
DA:514,0
DA:515,0
DA:516,0
DA:517,0
DA:518,0
DA:527,0
DA:528,0
DA:529,0
DA:532,0
DA:541,0
DA:542,0
DA:543,0
DA:544,0
DA:547,0
DA:549,0
DA:551,0
DA:552,0
DA:553,0
DA:554,0
DA:555,0
DA:556,0
DA:557,0
DA:558,0
DA:567,0
DA:568,0
DA:569,0
DA:572,0
DA:574,0
DA:576,0
DA:577,0
DA:578,0
DA:579,0
DA:580,0
DA:581,0
DA:582,0
DA:583,0
DA:592,0
DA:595,0
DA:598,0
DA:599,0
DA:600,0
DA:601,0
DA:602,0
DA:610,0
DA:612,0
DA:625,0
DA:626,0
DA:627,0
DA:629,0
DA:630,0
DA:631,0
DA:633,0
DA:634,0
DA:635,0
DA:638,0
DA:639,0
DA:640,0
DA:641,0
DA:642,0
DA:643,0
DA:644,0
DA:645,0
DA:646,0
DA:647,0
DA:648,0
DA:649,0
DA:650,0
DA:651,0
DA:652,0
DA:653,0
DA:654,0
DA:655,0
DA:656,0
DA:657,0
DA:658,0
DA:659,0
DA:660,0
DA:661,0
DA:662,0
DA:664,0
DA:665,0
DA:666,0
DA:667,0
DA:668,0
DA:669,0
BRF:0
BRH:0
LF:301
LH:0
end_of_record
SF:/root/autodl-tmp/zjj/p/ditto-llm/crates/ditto-core/src/runtime/builder_protocol.rs
FN:24,_RNCNvNtNtCseXwexsNt0j5_10ditto_core7runtime16builder_protocol24configured_default_model0B7_
FN:80,_RNCNvNtNtCseXwexsNt0j5_10ditto_core7runtime16builder_protocol24default_builder_assembly0B7_
FN:200,_RNCNvNtNtCseXwexsNt0j5_10ditto_core7runtime16builder_protocol30resolve_context_cache_assembly0B7_
FN:217,_RNCNvNtNtCseXwexsNt0j5_10ditto_core7runtime16builder_protocol30resolve_context_cache_assemblys0_0B7_
FN:205,_RNCNvNtNtCseXwexsNt0j5_10ditto_core7runtime16builder_protocol30resolve_context_cache_assemblys_0B7_
FN:35,_RNvMNtNtCseXwexsNt0j5_10ditto_core7runtime16builder_protocolNtB2_22BuilderAssemblyRequest3new
FN:19,_RNvNtNtCseXwexsNt0j5_10ditto_core7runtime16builder_protocol24configured_default_model
FN:65,_RNvNtNtCseXwexsNt0j5_10ditto_core7runtime16builder_protocol24default_builder_assembly
FN:96,_RNvNtNtCseXwexsNt0j5_10ditto_core7runtime16builder_protocol24resolve_builder_assembly
FN:191,_RNvNtNtCseXwexsNt0j5_10ditto_core7runtime16builder_protocol30resolve_context_cache_assembly
FN:55,_RNvNtNtCseXwexsNt0j5_10ditto_core7runtime16builder_protocol37apply_runtime_route_to_builder_config
FNDA:0,_RNCNvNtNtCseXwexsNt0j5_10ditto_core7runtime16builder_protocol24configured_default_model0B7_
FNDA:0,_RNCNvNtNtCseXwexsNt0j5_10ditto_core7runtime16builder_protocol24default_builder_assembly0B7_
FNDA:0,_RNCNvNtNtCseXwexsNt0j5_10ditto_core7runtime16builder_protocol30resolve_context_cache_assembly0B7_
FNDA:0,_RNCNvNtNtCseXwexsNt0j5_10ditto_core7runtime16builder_protocol30resolve_context_cache_assemblys0_0B7_
FNDA:0,_RNCNvNtNtCseXwexsNt0j5_10ditto_core7runtime16builder_protocol30resolve_context_cache_assemblys_0B7_
FNDA:0,_RNvMNtNtCseXwexsNt0j5_10ditto_core7runtime16builder_protocolNtB2_22BuilderAssemblyRequest3new
FNDA:0,_RNvNtNtCseXwexsNt0j5_10ditto_core7runtime16builder_protocol24configured_default_model
FNDA:0,_RNvNtNtCseXwexsNt0j5_10ditto_core7runtime16builder_protocol24default_builder_assembly
FNDA:0,_RNvNtNtCseXwexsNt0j5_10ditto_core7runtime16builder_protocol24resolve_builder_assembly
FNDA:0,_RNvNtNtCseXwexsNt0j5_10ditto_core7runtime16builder_protocol30resolve_context_cache_assembly
FNDA:0,_RNvNtNtCseXwexsNt0j5_10ditto_core7runtime16builder_protocol37apply_runtime_route_to_builder_config
FNF:11
FNH:0
DA:19,0
DA:20,0
DA:21,0
DA:22,0
DA:23,0
DA:24,0
DA:25,0
DA:35,0
DA:36,0
DA:37,0
DA:38,0
DA:39,0
DA:40,0
DA:41,0
DA:42,0
DA:43,0
DA:44,0
DA:45,0
DA:55,0
DA:56,0
DA:57,0
DA:58,0
DA:59,0
DA:60,0
DA:61,0
DA:62,0
DA:63,0
DA:65,0
DA:66,0
DA:67,0
DA:68,0
DA:69,0
DA:70,0
DA:71,0
DA:72,0
DA:73,0
DA:74,0
DA:75,0
DA:77,0
DA:78,0
DA:79,0
DA:80,0
DA:81,0
DA:82,0
DA:84,0
DA:85,0
DA:86,0
DA:87,0
DA:89,0
DA:90,0
DA:91,0
DA:92,0
DA:93,0
DA:94,0
DA:96,0
DA:97,0
DA:98,0
DA:99,0
DA:100,0
DA:101,0
DA:102,0
DA:103,0
DA:105,0
DA:108,0
DA:109,0
DA:111,0
DA:114,0
DA:115,0
DA:116,0
DA:117,0
DA:118,0
DA:119,0
DA:120,0
DA:121,0
DA:122,0
DA:123,0
DA:124,0
DA:125,0
DA:126,0
DA:127,0
DA:128,0
DA:129,0
DA:131,0
DA:132,0
DA:133,0
DA:134,0
DA:135,0
DA:136,0
DA:137,0
DA:140,0
DA:141,0
DA:142,0
DA:143,0
DA:144,0
DA:145,0
DA:150,0
DA:151,0
DA:152,0
DA:154,0
DA:155,0
DA:156,0
DA:157,0
DA:158,0
DA:160,0
DA:161,0
DA:162,0
DA:163,0
DA:164,0
DA:165,0
DA:166,0
DA:167,0
DA:169,0
DA:170,0
DA:171,0
DA:172,0
DA:173,0
DA:174,0
DA:175,0
DA:176,0
DA:177,0
DA:178,0
DA:179,0
DA:180,0
DA:181,0
DA:182,0
DA:183,0
DA:185,0
DA:186,0
DA:191,0
DA:192,0
DA:193,0
DA:194,0
DA:195,0
DA:196,0
DA:197,0
DA:198,0
DA:199,0
DA:200,0
DA:201,0
DA:202,0
DA:203,0
DA:204,0
DA:205,0
DA:206,0
DA:207,0
DA:208,0
DA:209,0
DA:210,0
DA:211,0
DA:212,0
DA:213,0
DA:214,0
DA:215,0
DA:216,0
DA:217,0
DA:218,0
DA:219,0
DA:220,0
DA:221,0
DA:222,0
DA:224,0
DA:225,0
DA:226,0
DA:227,0
DA:228,0
DA:229,0
DA:230,0
DA:231,0
DA:232,0
DA:233,0
DA:234,0
DA:235,0
DA:236,0
DA:237,0
DA:238,0
DA:240,0
DA:241,0
BRF:0
BRH:0
LF:185
LH:0
end_of_record
SF:/root/autodl-tmp/zjj/p/ditto-llm/crates/ditto-core/src/runtime/builtin.rs
FN:21,_RNvMNtNtCseXwexsNt0j5_10ditto_core7runtime7builtinNtB2_22BuiltinRuntimeAssembly12from_catalog
FN:17,_RNvMNtNtCseXwexsNt0j5_10ditto_core7runtime7builtinNtB2_22BuiltinRuntimeAssembly7builtin
FN:28,_RNvMNtNtCseXwexsNt0j5_10ditto_core7runtime7builtinNtB2_22BuiltinRuntimeAssembly7catalog
FN:32,_RNvMNtNtCseXwexsNt0j5_10ditto_core7runtime7builtinNtB2_22BuiltinRuntimeAssembly8registry
FN:12,_RNvNtNtCseXwexsNt0j5_10ditto_core7runtime7builtin24builtin_runtime_assembly
FNDA:5,_RNvMNtNtCseXwexsNt0j5_10ditto_core7runtime7builtinNtB2_22BuiltinRuntimeAssembly12from_catalog
FNDA:5,_RNvMNtNtCseXwexsNt0j5_10ditto_core7runtime7builtinNtB2_22BuiltinRuntimeAssembly7builtin
FNDA:5,_RNvMNtNtCseXwexsNt0j5_10ditto_core7runtime7builtinNtB2_22BuiltinRuntimeAssembly7catalog
FNDA:0,_RNvMNtNtCseXwexsNt0j5_10ditto_core7runtime7builtinNtB2_22BuiltinRuntimeAssembly8registry
FNDA:5,_RNvNtNtCseXwexsNt0j5_10ditto_core7runtime7builtin24builtin_runtime_assembly
FNF:5
FNH:4
DA:12,5
DA:13,5
DA:14,5
DA:17,5
DA:18,5
DA:19,5
DA:21,5
DA:22,5
DA:23,5
DA:24,5
DA:25,5
DA:26,5
DA:28,5
DA:29,5
DA:30,5
DA:32,0
DA:33,0
DA:34,0
BRF:0
BRH:0
LF:18
LH:15
end_of_record
SF:/root/autodl-tmp/zjj/p/ditto-llm/crates/ditto-core/src/runtime/explain.rs
FN:182,_RNCNvMs2_NtNtCseXwexsNt0j5_10ditto_core7runtime7explainNtB7_27RuntimeInvocationHintsEntry10from_hints0Bb_
FN:185,_RNCNvMs2_NtNtCseXwexsNt0j5_10ditto_core7runtime7explainNtB7_27RuntimeInvocationHintsEntry10from_hintss_0Bb_
FN:218,_RNCNvMs4_NtNtCseXwexsNt0j5_10ditto_core7runtime7explainNtB7_37RuntimeResolvedModelCapabilityExplain15from_descriptor0Bb_
FN:66,_RNvMNtNtCseXwexsNt0j5_10ditto_core7runtime7explainNtB2_19RuntimeRouteExplain5route
FN:178,_RNvMs2_NtNtCseXwexsNt0j5_10ditto_core7runtime7explainNtB5_27RuntimeInvocationHintsEntry10from_hints
FN:191,_RNvMs3_NtNtCseXwexsNt0j5_10ditto_core7runtime7explainNtB5_34RuntimeCapabilityResolutionExplain15from_resolution
FN:210,_RNvMs4_NtNtCseXwexsNt0j5_10ditto_core7runtime7explainNtB5_37RuntimeResolvedModelCapabilityExplain15from_descriptor
FN:225,_RNvMs5_NtNtCseXwexsNt0j5_10ditto_core7runtime7explainNtB5_25RuntimeResolvedRouteEntry10from_route
FN:258,_RNvNtNtCseXwexsNt0j5_10ditto_core7runtime7explain14transport_name
FN:265,_RNvNtNtCseXwexsNt0j5_10ditto_core7runtime7explain16http_method_name
FN:243,_RNvNtNtCseXwexsNt0j5_10ditto_core7runtime7explain19sorted_capabilities
FN:145,_RNvNtNtCseXwexsNt0j5_10ditto_core7runtime7explain21explain_runtime_route
FN:274,_RNvNtNtCseXwexsNt0j5_10ditto_core7runtime7explain24verification_status_name
FN:249,_RNvNtNtCseXwexsNt0j5_10ditto_core7runtime7explain25runtime_provider_api_name
FN:170,_RNvNtNtCseXwexsNt0j5_10ditto_core7runtime7explain29explain_builtin_runtime_route
FN:126,_RNvXs0_NtNtCseXwexsNt0j5_10ditto_core7runtime7explainNtB5_27RuntimeModelSelectionSourceINtNtCs7dTDQl1DYhd_4core7convert4FromNtNtB7_5route26RuntimeResolvedModelSourceE4from
FN:135,_RNvXs1_NtNtCseXwexsNt0j5_10ditto_core7runtime7explainNtB5_29RuntimeBaseUrlSelectionSourceINtNtCs7dTDQl1DYhd_4core7convert4FromNtNtB7_5route28RuntimeResolvedBaseUrlSourceE4from
FN:116,_RNvXs_NtNtCseXwexsNt0j5_10ditto_core7runtime7explainNtB4_30RuntimeProviderSelectionSourceINtNtCs7dTDQl1DYhd_4core7convert4FromNtNtB6_5route29RuntimeResolvedProviderSourceE4from
FNDA:0,_RNCNvMs2_NtNtCseXwexsNt0j5_10ditto_core7runtime7explainNtB7_27RuntimeInvocationHintsEntry10from_hints0Bb_
FNDA:0,_RNCNvMs2_NtNtCseXwexsNt0j5_10ditto_core7runtime7explainNtB7_27RuntimeInvocationHintsEntry10from_hintss_0Bb_
FNDA:0,_RNCNvMs4_NtNtCseXwexsNt0j5_10ditto_core7runtime7explainNtB7_37RuntimeResolvedModelCapabilityExplain15from_descriptor0Bb_
FNDA:0,_RNvMNtNtCseXwexsNt0j5_10ditto_core7runtime7explainNtB2_19RuntimeRouteExplain5route
FNDA:1,_RNvMs2_NtNtCseXwexsNt0j5_10ditto_core7runtime7explainNtB5_27RuntimeInvocationHintsEntry10from_hints
FNDA:1,_RNvMs3_NtNtCseXwexsNt0j5_10ditto_core7runtime7explainNtB5_34RuntimeCapabilityResolutionExplain15from_resolution
FNDA:0,_RNvMs4_NtNtCseXwexsNt0j5_10ditto_core7runtime7explainNtB5_37RuntimeResolvedModelCapabilityExplain15from_descriptor
FNDA:1,_RNvMs5_NtNtCseXwexsNt0j5_10ditto_core7runtime7explainNtB5_25RuntimeResolvedRouteEntry10from_route
FNDA:2,_RNvNtNtCseXwexsNt0j5_10ditto_core7runtime7explain14transport_name
FNDA:2,_RNvNtNtCseXwexsNt0j5_10ditto_core7runtime7explain16http_method_name
FNDA:5,_RNvNtNtCseXwexsNt0j5_10ditto_core7runtime7explain19sorted_capabilities
FNDA:1,_RNvNtNtCseXwexsNt0j5_10ditto_core7runtime7explain21explain_runtime_route
FNDA:1,_RNvNtNtCseXwexsNt0j5_10ditto_core7runtime7explain24verification_status_name
FNDA:0,_RNvNtNtCseXwexsNt0j5_10ditto_core7runtime7explain25runtime_provider_api_name
FNDA:1,_RNvNtNtCseXwexsNt0j5_10ditto_core7runtime7explain29explain_builtin_runtime_route
FNDA:1,_RNvXs0_NtNtCseXwexsNt0j5_10ditto_core7runtime7explainNtB5_27RuntimeModelSelectionSourceINtNtCs7dTDQl1DYhd_4core7convert4FromNtNtB7_5route26RuntimeResolvedModelSourceE4from
FNDA:2,_RNvXs1_NtNtCseXwexsNt0j5_10ditto_core7runtime7explainNtB5_29RuntimeBaseUrlSelectionSourceINtNtCs7dTDQl1DYhd_4core7convert4FromNtNtB7_5route28RuntimeResolvedBaseUrlSourceE4from
FNDA:2,_RNvXs_NtNtCseXwexsNt0j5_10ditto_core7runtime7explainNtB4_30RuntimeProviderSelectionSourceINtNtCs7dTDQl1DYhd_4core7convert4FromNtNtB6_5route29RuntimeResolvedProviderSourceE4from
FNF:18
FNH:12
DA:66,0
DA:67,0
DA:68,0
DA:116,2
DA:117,2
DA:118,2
DA:119,0
DA:120,0
DA:122,2
DA:126,1
DA:127,1
DA:128,0
DA:129,1
DA:131,1
DA:135,2
DA:136,2
DA:137,0
DA:138,2
DA:139,0
DA:140,0
DA:142,2
DA:145,1
DA:146,1
DA:147,1
DA:148,1
DA:149,1
DA:151,1
DA:152,1
DA:153,1
DA:154,1
DA:155,1
DA:156,1
DA:157,1
DA:158,1
DA:159,1
DA:160,1
DA:161,1
DA:162,1
DA:163,1
DA:164,1
DA:165,1
DA:166,1
DA:167,1
DA:168,1
DA:170,1
DA:171,1
DA:172,1
DA:173,1
DA:174,1
DA:175,1
DA:178,1
DA:180,1
DA:181,1
DA:182,1
DA:183,1
DA:184,1
DA:185,1
DA:187,1
DA:191,1
DA:192,1
DA:193,1
DA:194,1
DA:196,1
DA:197,1
DA:198,1
DA:199,1
DA:200,1
DA:201,1
DA:202,1
DA:203,1
DA:204,1
DA:205,1
DA:206,1
DA:210,0
DA:212,0
DA:213,0
DA:214,0
DA:215,0
DA:216,0
DA:217,0
DA:218,0
DA:219,0
DA:221,0
DA:225,1
DA:226,1
DA:227,1
DA:228,1
DA:229,1
DA:230,1
DA:231,1
DA:232,1
DA:233,1
DA:234,1
DA:235,1
DA:236,1
DA:237,1
DA:238,1
DA:239,1
DA:240,1
DA:243,5
DA:244,5
DA:245,5
DA:246,5
DA:247,5
DA:249,0
DA:250,0
DA:251,0
DA:252,0
DA:253,0
DA:254,0
DA:256,0
DA:258,2
DA:259,2
DA:260,2
DA:261,0
DA:263,2
DA:265,2
DA:266,2
DA:267,0
DA:268,2
DA:269,0
DA:270,0
DA:272,2
DA:274,1
DA:275,1
DA:276,1
DA:277,0
DA:278,0
DA:280,1
BRF:0
BRH:0
LF:132
LH:97
end_of_record
SF:/root/autodl-tmp/zjj/p/ditto-llm/crates/ditto-core/src/runtime/model_builders.rs
FN:215,_RNCNvNtNtCseXwexsNt0j5_10ditto_core7runtime14model_builders17build_file_client0B7_
FN:189,_RNCNvNtNtCseXwexsNt0j5_10ditto_core7runtime14model_builders18build_batch_client0B7_
FN:202,_RNCNvNtNtCseXwexsNt0j5_10ditto_core7runtime14model_builders18build_rerank_model0B7_
FN:176,_RNCNvNtNtCseXwexsNt0j5_10ditto_core7runtime14model_builders18build_speech_model0B7_
FN:72,_RNCNvNtNtCseXwexsNt0j5_10ditto_core7runtime14model_builders20build_language_model0B7_
FN:85,_RNCNvNtNtCseXwexsNt0j5_10ditto_core7runtime14model_builders21build_embedding_model0B7_
FN:124,_RNCNvNtNtCseXwexsNt0j5_10ditto_core7runtime14model_builders22build_image_edit_model0B7_
FN:98,_RNCNvNtNtCseXwexsNt0j5_10ditto_core7runtime14model_builders22build_moderation_model0B7_
FN:227,_RNCNvNtNtCseXwexsNt0j5_10ditto_core7runtime14model_builders25build_context_cache_model0B7_
FN:111,_RNCNvNtNtCseXwexsNt0j5_10ditto_core7runtime14model_builders28build_image_generation_model0B7_
FN:150,_RNCNvNtNtCseXwexsNt0j5_10ditto_core7runtime14model_builders28build_realtime_session_model0B7_
FN:137,_RNCNvNtNtCseXwexsNt0j5_10ditto_core7runtime14model_builders28build_video_generation_model0B7_
FN:163,_RNCNvNtNtCseXwexsNt0j5_10ditto_core7runtime14model_builders31build_audio_transcription_model0B7_
FN:44,_RNCNvNtNtCseXwexsNt0j5_10ditto_core7runtime14model_builders35builtin_runtime_supports_capability0B7_
FN:45,_RNCNvNtNtCseXwexsNt0j5_10ditto_core7runtime14model_builders35builtin_runtime_supports_capabilitys_0B7_
FN:211,_RNvNtNtCseXwexsNt0j5_10ditto_core7runtime14model_builders17build_file_client
FN:185,_RNvNtNtCseXwexsNt0j5_10ditto_core7runtime14model_builders18build_batch_client
FN:198,_RNvNtNtCseXwexsNt0j5_10ditto_core7runtime14model_builders18build_rerank_model
FN:172,_RNvNtNtCseXwexsNt0j5_10ditto_core7runtime14model_builders18build_speech_model
FN:68,_RNvNtNtCseXwexsNt0j5_10ditto_core7runtime14model_builders20build_language_model
FN:81,_RNvNtNtCseXwexsNt0j5_10ditto_core7runtime14model_builders21build_embedding_model
FN:120,_RNvNtNtCseXwexsNt0j5_10ditto_core7runtime14model_builders22build_image_edit_model
FN:94,_RNvNtNtCseXwexsNt0j5_10ditto_core7runtime14model_builders22build_moderation_model
FN:223,_RNvNtNtCseXwexsNt0j5_10ditto_core7runtime14model_builders25build_context_cache_model
FN:107,_RNvNtNtCseXwexsNt0j5_10ditto_core7runtime14model_builders28build_image_generation_model
FN:146,_RNvNtNtCseXwexsNt0j5_10ditto_core7runtime14model_builders28build_realtime_session_model
FN:133,_RNvNtNtCseXwexsNt0j5_10ditto_core7runtime14model_builders28build_video_generation_model
FN:159,_RNvNtNtCseXwexsNt0j5_10ditto_core7runtime14model_builders31build_audio_transcription_model
FN:27,_RNvNtNtCseXwexsNt0j5_10ditto_core7runtime14model_builders35builtin_runtime_supports_capability
FN:53,_RNvNtNtCseXwexsNt0j5_10ditto_core7runtime14model_builders37builtin_runtime_supports_file_builder
FNDA:0,_RNCNvNtNtCseXwexsNt0j5_10ditto_core7runtime14model_builders17build_file_client0B7_
FNDA:0,_RNCNvNtNtCseXwexsNt0j5_10ditto_core7runtime14model_builders18build_batch_client0B7_
FNDA:0,_RNCNvNtNtCseXwexsNt0j5_10ditto_core7runtime14model_builders18build_rerank_model0B7_
FNDA:0,_RNCNvNtNtCseXwexsNt0j5_10ditto_core7runtime14model_builders18build_speech_model0B7_
FNDA:0,_RNCNvNtNtCseXwexsNt0j5_10ditto_core7runtime14model_builders20build_language_model0B7_
FNDA:0,_RNCNvNtNtCseXwexsNt0j5_10ditto_core7runtime14model_builders21build_embedding_model0B7_
FNDA:0,_RNCNvNtNtCseXwexsNt0j5_10ditto_core7runtime14model_builders22build_image_edit_model0B7_
FNDA:0,_RNCNvNtNtCseXwexsNt0j5_10ditto_core7runtime14model_builders22build_moderation_model0B7_
FNDA:0,_RNCNvNtNtCseXwexsNt0j5_10ditto_core7runtime14model_builders25build_context_cache_model0B7_
FNDA:0,_RNCNvNtNtCseXwexsNt0j5_10ditto_core7runtime14model_builders28build_image_generation_model0B7_
FNDA:0,_RNCNvNtNtCseXwexsNt0j5_10ditto_core7runtime14model_builders28build_realtime_session_model0B7_
FNDA:0,_RNCNvNtNtCseXwexsNt0j5_10ditto_core7runtime14model_builders28build_video_generation_model0B7_
FNDA:0,_RNCNvNtNtCseXwexsNt0j5_10ditto_core7runtime14model_builders31build_audio_transcription_model0B7_
FNDA:0,_RNCNvNtNtCseXwexsNt0j5_10ditto_core7runtime14model_builders35builtin_runtime_supports_capability0B7_
FNDA:0,_RNCNvNtNtCseXwexsNt0j5_10ditto_core7runtime14model_builders35builtin_runtime_supports_capabilitys_0B7_
FNDA:0,_RNvNtNtCseXwexsNt0j5_10ditto_core7runtime14model_builders17build_file_client
FNDA:0,_RNvNtNtCseXwexsNt0j5_10ditto_core7runtime14model_builders18build_batch_client
FNDA:0,_RNvNtNtCseXwexsNt0j5_10ditto_core7runtime14model_builders18build_rerank_model
FNDA:0,_RNvNtNtCseXwexsNt0j5_10ditto_core7runtime14model_builders18build_speech_model
FNDA:0,_RNvNtNtCseXwexsNt0j5_10ditto_core7runtime14model_builders20build_language_model
FNDA:0,_RNvNtNtCseXwexsNt0j5_10ditto_core7runtime14model_builders21build_embedding_model
FNDA:0,_RNvNtNtCseXwexsNt0j5_10ditto_core7runtime14model_builders22build_image_edit_model
FNDA:0,_RNvNtNtCseXwexsNt0j5_10ditto_core7runtime14model_builders22build_moderation_model
FNDA:0,_RNvNtNtCseXwexsNt0j5_10ditto_core7runtime14model_builders25build_context_cache_model
FNDA:0,_RNvNtNtCseXwexsNt0j5_10ditto_core7runtime14model_builders28build_image_generation_model
FNDA:0,_RNvNtNtCseXwexsNt0j5_10ditto_core7runtime14model_builders28build_realtime_session_model
FNDA:0,_RNvNtNtCseXwexsNt0j5_10ditto_core7runtime14model_builders28build_video_generation_model
FNDA:0,_RNvNtNtCseXwexsNt0j5_10ditto_core7runtime14model_builders31build_audio_transcription_model
FNDA:0,_RNvNtNtCseXwexsNt0j5_10ditto_core7runtime14model_builders35builtin_runtime_supports_capability
FNDA:0,_RNvNtNtCseXwexsNt0j5_10ditto_core7runtime14model_builders37builtin_runtime_supports_file_builder
FNF:30
FNH:0
DA:27,0
DA:28,0
DA:29,0
DA:30,0
DA:31,0
DA:32,0
DA:33,0
DA:34,0
DA:35,0
DA:36,0
DA:37,0
DA:39,0
DA:40,0
DA:42,0
DA:43,0
DA:44,0
DA:45,0
DA:48,0
DA:49,0
DA:50,0
DA:51,0
DA:53,0
DA:54,0
DA:55,0
DA:56,0
DA:57,0
DA:58,0
DA:59,0
DA:60,0
DA:61,0
DA:62,0
DA:68,0
DA:69,0
DA:70,0
DA:71,0
DA:72,0
DA:73,0
DA:74,0
DA:75,0
DA:77,0
DA:78,0
DA:79,0
DA:81,0
DA:82,0
DA:83,0
DA:84,0
DA:85,0
DA:86,0
DA:87,0
DA:88,0
DA:90,0
DA:91,0
DA:92,0
DA:94,0
DA:95,0
DA:96,0
DA:97,0
DA:98,0
DA:99,0
DA:100,0
DA:101,0
DA:103,0
DA:104,0
DA:105,0
DA:107,0
DA:108,0
DA:109,0
DA:110,0
DA:111,0
DA:112,0
DA:113,0
DA:114,0
DA:116,0
DA:117,0
DA:118,0
DA:120,0
DA:121,0
DA:122,0
DA:123,0
DA:124,0
DA:125,0
DA:126,0
DA:127,0
DA:129,0
DA:130,0
DA:131,0
DA:133,0
DA:134,0
DA:135,0
DA:136,0
DA:137,0
DA:138,0
DA:139,0
DA:140,0
DA:142,0
DA:143,0
DA:144,0
DA:146,0
DA:147,0
DA:148,0
DA:149,0
DA:150,0
DA:151,0
DA:152,0
DA:153,0
DA:155,0
DA:156,0
DA:157,0
DA:159,0
DA:160,0
DA:161,0
DA:162,0
DA:163,0
DA:164,0
DA:165,0
DA:166,0
DA:168,0
DA:169,0
DA:170,0
DA:172,0
DA:173,0
DA:174,0
DA:175,0
DA:176,0
DA:177,0
DA:178,0
DA:179,0
DA:181,0
DA:182,0
DA:183,0
DA:185,0
DA:186,0
DA:187,0
DA:188,0
DA:189,0
DA:190,0
DA:191,0
DA:192,0
DA:194,0
DA:195,0
DA:196,0
DA:198,0
DA:199,0
DA:200,0
DA:201,0
DA:202,0
DA:203,0
DA:204,0
DA:205,0
DA:207,0
DA:208,0
DA:209,0
DA:211,0
DA:212,0
DA:213,0
DA:214,0
DA:215,0
DA:216,0
DA:217,0
DA:218,0
DA:220,0
DA:221,0
DA:223,0
DA:224,0
DA:225,0
DA:226,0
DA:227,0
DA:228,0
DA:229,0
DA:230,0
BRF:0
BRH:0
LF:185
LH:0
end_of_record
SF:/root/autodl-tmp/zjj/p/ditto-llm/crates/ditto-core/src/runtime/resolver.rs
FN:6,_RNvNtNtCseXwexsNt0j5_10ditto_core7runtime8resolver29resolve_builtin_runtime_route
FNDA:3,_RNvNtNtCseXwexsNt0j5_10ditto_core7runtime8resolver29resolve_builtin_runtime_route
FNF:1
FNH:1
DA:6,3
DA:7,3
DA:8,3
DA:9,3
BRF:0
BRH:0
LF:4
LH:4
end_of_record
SF:/root/autodl-tmp/zjj/p/ditto-llm/crates/ditto-core/src/runtime/route.rs
FN:65,_RNvMNtNtCseXwexsNt0j5_10ditto_core7runtime5routeNtNtB6_7catalog15CatalogRegistry26plugin_for_runtime_request
FN:96,_RNCNvNtNtCseXwexsNt0j5_10ditto_core7runtime5route26resolve_runtime_route_plan0B7_
FN:124,_RNCNvNtNtCseXwexsNt0j5_10ditto_core7runtime5route26resolve_runtime_route_plans0_0B7_
FN:101,_RNCNvNtNtCseXwexsNt0j5_10ditto_core7runtime5route26resolve_runtime_route_plans_0B7_
FN:75,_RNvNtNtCseXwexsNt0j5_10ditto_core7runtime5route21resolve_runtime_route
FN:82,_RNvNtNtCseXwexsNt0j5_10ditto_core7runtime5route26resolve_runtime_route_plan
FNDA:0,_RNvMNtNtCseXwexsNt0j5_10ditto_core7runtime5routeNtNtB6_7catalog15CatalogRegistry26plugin_for_runtime_request
FNDA:0,_RNCNvNtNtCseXwexsNt0j5_10ditto_core7runtime5route26resolve_runtime_route_plan0B7_
FNDA:0,_RNCNvNtNtCseXwexsNt0j5_10ditto_core7runtime5route26resolve_runtime_route_plans0_0B7_
FNDA:3,_RNCNvNtNtCseXwexsNt0j5_10ditto_core7runtime5route26resolve_runtime_route_plans_0B7_
FNDA:3,_RNvNtNtCseXwexsNt0j5_10ditto_core7runtime5route21resolve_runtime_route
FNDA:5,_RNvNtNtCseXwexsNt0j5_10ditto_core7runtime5route26resolve_runtime_route_plan
FNF:6
FNH:3
DA:65,0
DA:66,0
DA:67,0
DA:68,0
DA:69,0
DA:70,0
DA:71,0
DA:72,0
DA:75,3
DA:76,3
DA:77,3
DA:78,3
DA:79,3
DA:80,3
DA:82,5
DA:83,5
DA:84,5
DA:85,5
DA:86,5
DA:87,5
DA:88,5
DA:89,5
DA:90,0
DA:91,5
DA:93,5
DA:94,5
DA:95,5
DA:96,0
DA:97,0
DA:98,5
DA:99,5
DA:100,5
DA:101,5
DA:102,5
DA:103,5
DA:104,5
DA:105,4
DA:106,4
DA:107,1
DA:108,1
DA:109,1
DA:110,1
DA:111,1
DA:112,1
DA:113,3
DA:114,1
DA:115,4
DA:116,4
DA:117,4
DA:118,4
DA:119,4
DA:120,4
DA:121,4
DA:123,4
DA:124,0
DA:125,0
DA:126,0
DA:127,0
DA:128,4
DA:129,4
DA:130,4
DA:131,4
DA:132,0
DA:133,4
DA:134,4
DA:135,4
DA:136,4
DA:137,4
DA:138,4
DA:139,4
DA:140,4
DA:142,4
DA:143,4
DA:144,4
DA:145,4
DA:146,4
DA:147,4
DA:148,4
DA:149,4
DA:150,4
DA:151,4
DA:152,4
DA:153,4
DA:154,4
DA:155,4
DA:156,4
DA:157,4
DA:158,4
DA:159,4
DA:160,4
DA:161,4
DA:162,4
DA:163,4
DA:164,5
BRF:0
BRH:0
LF:97
LH:79
end_of_record
SF:/root/autodl-tmp/zjj/p/ditto-llm/crates/ditto-core/src/runtime/route_endpoint.rs
FN:12,_RNCNvNtNtCseXwexsNt0j5_10ditto_core7runtime14route_endpoint24resolve_runtime_base_url0B7_
FN:33,_RNCNvNtNtCseXwexsNt0j5_10ditto_core7runtime14route_endpoint24resolve_runtime_base_urls0_0B7_
FN:42,_RNCNvNtNtCseXwexsNt0j5_10ditto_core7runtime14route_endpoint24resolve_runtime_base_urls1_0B7_
FN:23,_RNCNvNtNtCseXwexsNt0j5_10ditto_core7runtime14route_endpoint24resolve_runtime_base_urls_0B7_
FN:77,_RNvNtNtCseXwexsNt0j5_10ditto_core7runtime14route_endpoint13join_base_url
FN:108,_RNvNtNtCseXwexsNt0j5_10ditto_core7runtime14route_endpoint19append_query_params
FN:5,_RNvNtNtCseXwexsNt0j5_10ditto_core7runtime14route_endpoint24resolve_runtime_base_url
FN:126,_RNvNtNtCseXwexsNt0j5_10ditto_core7runtime14route_endpoint25inferred_runtime_base_url
FN:60,_RNvNtNtCseXwexsNt0j5_10ditto_core7runtime14route_endpoint26merge_runtime_query_params
FN:45,_RNvNtNtCseXwexsNt0j5_10ditto_core7runtime14route_endpoint36adapt_runtime_base_url_for_transport
FNDA:0,_RNCNvNtNtCseXwexsNt0j5_10ditto_core7runtime14route_endpoint24resolve_runtime_base_url0B7_
FNDA:0,_RNCNvNtNtCseXwexsNt0j5_10ditto_core7runtime14route_endpoint24resolve_runtime_base_urls0_0B7_
FNDA:0,_RNCNvNtNtCseXwexsNt0j5_10ditto_core7runtime14route_endpoint24resolve_runtime_base_urls1_0B7_
FNDA:4,_RNCNvNtNtCseXwexsNt0j5_10ditto_core7runtime14route_endpoint24resolve_runtime_base_urls_0B7_
FNDA:4,_RNvNtNtCseXwexsNt0j5_10ditto_core7runtime14route_endpoint13join_base_url
FNDA:4,_RNvNtNtCseXwexsNt0j5_10ditto_core7runtime14route_endpoint19append_query_params
FNDA:4,_RNvNtNtCseXwexsNt0j5_10ditto_core7runtime14route_endpoint24resolve_runtime_base_url
FNDA:0,_RNvNtNtCseXwexsNt0j5_10ditto_core7runtime14route_endpoint25inferred_runtime_base_url
FNDA:4,_RNvNtNtCseXwexsNt0j5_10ditto_core7runtime14route_endpoint26merge_runtime_query_params
FNDA:4,_RNvNtNtCseXwexsNt0j5_10ditto_core7runtime14route_endpoint36adapt_runtime_base_url_for_transport
FNF:10
FNH:6
DA:5,4
DA:6,4
DA:7,4
DA:8,4
DA:9,4
DA:10,4
DA:11,4
DA:12,4
DA:14,0
DA:15,0
DA:16,0
DA:17,0
DA:18,4
DA:20,4
DA:21,4
DA:22,4
DA:23,4
DA:25,4
DA:26,4
DA:27,4
DA:28,4
DA:29,0
DA:31,0
DA:32,0
DA:33,0
DA:35,0
DA:36,0
DA:37,0
DA:38,0
DA:39,0
DA:41,0
DA:42,0
DA:43,4
DA:45,4
DA:46,4
DA:47,4
DA:48,4
DA:49,4
DA:50,4
DA:51,4
DA:52,4
DA:53,4
DA:54,0
DA:56,0
DA:57,0
DA:58,4
DA:60,4
DA:61,4
DA:62,4
DA:63,4
DA:64,4
DA:65,4
DA:66,1
DA:67,1
DA:68,1
DA:69,0
DA:70,1
DA:71,1
DA:73,3
DA:74,4
DA:75,4
DA:77,4
DA:78,4
DA:79,4
DA:81,4
DA:82,4
DA:83,0
DA:84,4
DA:85,4
DA:86,4
DA:87,4
DA:88,4
DA:89,4
DA:90,4
DA:91,0
DA:92,0
DA:94,0
DA:95,0
DA:96,0
DA:97,0
DA:98,0
DA:100,0
DA:101,0
DA:102,0
DA:103,0
DA:104,0
DA:106,4
DA:108,4
DA:109,4
DA:110,3
DA:111,1
DA:113,1
DA:114,1
DA:115,1
DA:116,1
DA:117,0
DA:118,1
DA:119,1
DA:120,1
DA:121,1
DA:123,1
DA:124,4
DA:126,0
DA:127,0
DA:128,0
DA:129,0
DA:131,0
DA:132,0
DA:133,0
DA:134,0
DA:137,0
DA:138,0
DA:139,0
DA:140,0
DA:144,0
DA:146,0
DA:147,0
BRF:0
BRH:0
LF:121
LH:70
end_of_record
SF:/root/autodl-tmp/zjj/p/ditto-llm/crates/ditto-core/src/runtime/route_selection.rs
FN:22,_RNCNCNvNtNtCseXwexsNt0j5_10ditto_core7runtime15route_selection33resolve_runtime_plugin_and_source00B9_
FN:106,_RNCNvNtNtCseXwexsNt0j5_10ditto_core7runtime15route_selection21resolve_runtime_model0B7_
FN:114,_RNCNvNtNtCseXwexsNt0j5_10ditto_core7runtime15route_selection21resolve_runtime_models_0B7_
FN:148,_RNCNvNtNtCseXwexsNt0j5_10ditto_core7runtime15route_selection23fallback_runtime_plugin0B7_
FN:129,_RNCNvNtNtCseXwexsNt0j5_10ditto_core7runtime15route_selection24configured_provider_hint0B7_
FN:19,_RNCNvNtNtCseXwexsNt0j5_10ditto_core7runtime15route_selection33resolve_runtime_plugin_and_source0B7_
FN:39,_RNCNvNtNtCseXwexsNt0j5_10ditto_core7runtime15route_selection33resolve_runtime_plugin_and_sources0_0B7_
FN:32,_RNCNvNtNtCseXwexsNt0j5_10ditto_core7runtime15route_selection33resolve_runtime_plugin_and_sources_0B7_
FN:84,_RNCNvNtNtCseXwexsNt0j5_10ditto_core7runtime15route_selection40validate_configured_enabled_capabilities0B7_
FN:100,_RNvNtNtCseXwexsNt0j5_10ditto_core7runtime15route_selection21resolve_runtime_model
FN:132,_RNvNtNtCseXwexsNt0j5_10ditto_core7runtime15route_selection23fallback_runtime_plugin
FN:90,_RNvNtNtCseXwexsNt0j5_10ditto_core7runtime15route_selection23normalize_runtime_hints
FN:125,_RNvNtNtCseXwexsNt0j5_10ditto_core7runtime15route_selection24configured_provider_hint
FN:42,_RNvNtNtCseXwexsNt0j5_10ditto_core7runtime15route_selection31effective_runtime_provider_hint
FN:9,_RNvNtNtCseXwexsNt0j5_10ditto_core7runtime15route_selection33resolve_runtime_plugin_and_source
FN:53,_RNvNtNtCseXwexsNt0j5_10ditto_core7runtime15route_selection40validate_configured_enabled_capabilities
FNDA:0,_RNCNCNvNtNtCseXwexsNt0j5_10ditto_core7runtime15route_selection33resolve_runtime_plugin_and_source00B9_
FNDA:3,_RNCNvNtNtCseXwexsNt0j5_10ditto_core7runtime15route_selection21resolve_runtime_model0B7_
FNDA:2,_RNCNvNtNtCseXwexsNt0j5_10ditto_core7runtime15route_selection21resolve_runtime_models_0B7_
FNDA:0,_RNCNvNtNtCseXwexsNt0j5_10ditto_core7runtime15route_selection23fallback_runtime_plugin0B7_
FNDA:0,_RNCNvNtNtCseXwexsNt0j5_10ditto_core7runtime15route_selection24configured_provider_hint0B7_
FNDA:5,_RNCNvNtNtCseXwexsNt0j5_10ditto_core7runtime15route_selection33resolve_runtime_plugin_and_source0B7_
FNDA:0,_RNCNvNtNtCseXwexsNt0j5_10ditto_core7runtime15route_selection33resolve_runtime_plugin_and_sources0_0B7_
FNDA:0,_RNCNvNtNtCseXwexsNt0j5_10ditto_core7runtime15route_selection33resolve_runtime_plugin_and_sources_0B7_
FNDA:0,_RNCNvNtNtCseXwexsNt0j5_10ditto_core7runtime15route_selection40validate_configured_enabled_capabilities0B7_
FNDA:5,_RNvNtNtCseXwexsNt0j5_10ditto_core7runtime15route_selection21resolve_runtime_model
FNDA:0,_RNvNtNtCseXwexsNt0j5_10ditto_core7runtime15route_selection23fallback_runtime_plugin
FNDA:4,_RNvNtNtCseXwexsNt0j5_10ditto_core7runtime15route_selection23normalize_runtime_hints
FNDA:0,_RNvNtNtCseXwexsNt0j5_10ditto_core7runtime15route_selection24configured_provider_hint
FNDA:5,_RNvNtNtCseXwexsNt0j5_10ditto_core7runtime15route_selection31effective_runtime_provider_hint
FNDA:5,_RNvNtNtCseXwexsNt0j5_10ditto_core7runtime15route_selection33resolve_runtime_plugin_and_source
FNDA:4,_RNvNtNtCseXwexsNt0j5_10ditto_core7runtime15route_selection40validate_configured_enabled_capabilities
FNF:16
FNH:8
DA:9,5
DA:10,5
DA:11,5
DA:12,5
DA:13,5
DA:14,5
DA:15,5
DA:16,5
DA:17,5
DA:18,5
DA:19,5
DA:20,5
DA:21,5
DA:22,5
DA:23,5
DA:24,5
DA:26,5
DA:27,0
DA:29,0
DA:30,0
DA:31,0
DA:32,0
DA:34,0
DA:35,0
DA:36,0
DA:38,0
DA:39,0
DA:40,5
DA:42,5
DA:43,5
DA:44,5
DA:45,5
DA:46,5
DA:47,5
DA:48,5
DA:49,0
DA:50,0
DA:51,5
DA:53,4
DA:54,4
DA:55,4
DA:56,4
DA:57,4
DA:58,4
DA:59,4
DA:60,0
DA:62,0
DA:63,0
DA:64,0
DA:65,0
DA:66,0
DA:67,0
DA:68,0
DA:70,0
DA:71,0
DA:72,0
DA:75,0
DA:76,0
DA:77,0
DA:80,0
DA:81,0
DA:82,0
DA:83,0
DA:84,0
DA:85,0
DA:87,0
DA:88,4
DA:90,4
DA:91,4
DA:92,4
DA:93,4
DA:94,4
DA:95,0
DA:96,4
DA:97,4
DA:98,4
DA:100,5
DA:101,5
DA:102,5
DA:103,5
DA:104,5
DA:105,5
DA:106,5
DA:108,3
DA:109,2
DA:111,2
DA:112,2
DA:113,2
DA:114,2
DA:116,2
DA:117,2
DA:118,2
DA:119,2
DA:120,0
DA:122,0
DA:123,5
DA:125,0
DA:126,0
DA:127,0
DA:128,0
DA:129,0
DA:130,0
DA:132,0
DA:133,0
DA:134,0
DA:135,0
DA:136,0
DA:137,0
DA:139,0
DA:142,0
DA:146,0
DA:147,0
DA:148,0
DA:150,0
BRF:0
BRH:0
LF:123
LH:63
end_of_record
SF:/root/autodl-tmp/zjj/p/ditto-llm/crates/ditto-core/src/runtime/transport.rs
FN:492,_RNCNCNCNvNtNtCseXwexsNt0j5_10ditto_core7runtime9transport23configured_query_paramss_000Bb_
FN:436,_RNCNCNvNtNtCseXwexsNt0j5_10ditto_core7runtime9transport19env_keys_or_default00B9_
FN:479,_RNCNCNvNtNtCseXwexsNt0j5_10ditto_core7runtime9transport23configured_query_params00B9_
FN:490,_RNCNCNvNtNtCseXwexsNt0j5_10ditto_core7runtime9transport23configured_query_paramss_00B9_
FN:436,_RNCNvNtNtCseXwexsNt0j5_10ditto_core7runtime9transport19env_keys_or_default0B7_
FN:463,_RNCNvNtNtCseXwexsNt0j5_10ditto_core7runtime9transport23configured_http_headers0B7_
FN:464,_RNCNvNtNtCseXwexsNt0j5_10ditto_core7runtime9transport23configured_http_headerss_0B7_
FN:477,_RNCNvNtNtCseXwexsNt0j5_10ditto_core7runtime9transport23configured_query_params0B7_
FN:487,_RNCNvNtNtCseXwexsNt0j5_10ditto_core7runtime9transport23configured_query_paramss_0B7_
FN:235,_RNCNvNtNtCseXwexsNt0j5_10ditto_core7runtime9transport27resolve_transport_auth_plan0B7_
FN:374,_RNCNvNtNtCseXwexsNt0j5_10ditto_core7runtime9transport29transport_auth_plan_from_hint0B7_
FN:44,_RNvMNtNtCseXwexsNt0j5_10ditto_core7runtime9transportNtB2_23RuntimeTransportRequest10with_hints
FN:54,_RNvMNtNtCseXwexsNt0j5_10ditto_core7runtime9transportNtB2_23RuntimeTransportRequest13route_request
FN:58,_RNvMNtNtCseXwexsNt0j5_10ditto_core7runtime9transportNtB2_23RuntimeTransportRequest15provider_config
FN:36,_RNvMNtNtCseXwexsNt0j5_10ditto_core7runtime9transportNtB2_23RuntimeTransportRequest20with_provider_config
FN:49,_RNvMNtNtCseXwexsNt0j5_10ditto_core7runtime9transportNtB2_23RuntimeTransportRequest24with_required_capability
FN:29,_RNvMNtNtCseXwexsNt0j5_10ditto_core7runtime9transportNtB2_23RuntimeTransportRequest3new
FN:440,_RNvNtNtCseXwexsNt0j5_10ditto_core7runtime9transport18oauth_field_source
FN:429,_RNvNtNtCseXwexsNt0j5_10ditto_core7runtime9transport19env_keys_or_default
FN:499,_RNvNtNtCseXwexsNt0j5_10ditto_core7runtime9transport21source_provider_label
FN:150,_RNvNtNtCseXwexsNt0j5_10ditto_core7runtime9transport22plan_runtime_transport
FN:455,_RNvNtNtCseXwexsNt0j5_10ditto_core7runtime9transport23configured_http_headers
FN:469,_RNvNtNtCseXwexsNt0j5_10ditto_core7runtime9transport23configured_query_params
FN:397,_RNvNtNtCseXwexsNt0j5_10ditto_core7runtime9transport25apply_default_auth_target
FN:231,_RNvNtNtCseXwexsNt0j5_10ditto_core7runtime9transport27resolve_transport_auth_plan
FN:369,_RNvNtNtCseXwexsNt0j5_10ditto_core7runtime9transport29transport_auth_plan_from_hint
FN:211,_RNvNtNtCseXwexsNt0j5_10ditto_core7runtime9transport30plan_builtin_runtime_transport
FN:255,_RNvNtNtCseXwexsNt0j5_10ditto_core7runtime9transport38transport_auth_plan_from_provider_auth
FN:219,_RNvXs_NtNtCseXwexsNt0j5_10ditto_core7runtime9transportNtB4_30RuntimeTransportBaseUrlRewriteINtNtCs7dTDQl1DYhd_4core7convert4FromNtNtNtB8_17session_transport6policy23WebsocketBaseUrlRewriteE4from
FNDA:0,_RNCNCNCNvNtNtCseXwexsNt0j5_10ditto_core7runtime9transport23configured_query_paramss_000Bb_
FNDA:0,_RNCNCNvNtNtCseXwexsNt0j5_10ditto_core7runtime9transport19env_keys_or_default00B9_
FNDA:1,_RNCNCNvNtNtCseXwexsNt0j5_10ditto_core7runtime9transport23configured_query_params00B9_
FNDA:0,_RNCNCNvNtNtCseXwexsNt0j5_10ditto_core7runtime9transport23configured_query_paramss_00B9_
FNDA:0,_RNCNvNtNtCseXwexsNt0j5_10ditto_core7runtime9transport19env_keys_or_default0B7_
FNDA:1,_RNCNvNtNtCseXwexsNt0j5_10ditto_core7runtime9transport23configured_http_headers0B7_
FNDA:1,_RNCNvNtNtCseXwexsNt0j5_10ditto_core7runtime9transport23configured_http_headerss_0B7_
FNDA:1,_RNCNvNtNtCseXwexsNt0j5_10ditto_core7runtime9transport23configured_query_params0B7_
FNDA:0,_RNCNvNtNtCseXwexsNt0j5_10ditto_core7runtime9transport23configured_query_paramss_0B7_
FNDA:1,_RNCNvNtNtCseXwexsNt0j5_10ditto_core7runtime9transport27resolve_transport_auth_plan0B7_
FNDA:0,_RNCNvNtNtCseXwexsNt0j5_10ditto_core7runtime9transport29transport_auth_plan_from_hint0B7_
FNDA:0,_RNvMNtNtCseXwexsNt0j5_10ditto_core7runtime9transportNtB2_23RuntimeTransportRequest10with_hints
FNDA:1,_RNvMNtNtCseXwexsNt0j5_10ditto_core7runtime9transportNtB2_23RuntimeTransportRequest13route_request
FNDA:1,_RNvMNtNtCseXwexsNt0j5_10ditto_core7runtime9transportNtB2_23RuntimeTransportRequest15provider_config
FNDA:1,_RNvMNtNtCseXwexsNt0j5_10ditto_core7runtime9transportNtB2_23RuntimeTransportRequest20with_provider_config
FNDA:1,_RNvMNtNtCseXwexsNt0j5_10ditto_core7runtime9transportNtB2_23RuntimeTransportRequest24with_required_capability
FNDA:1,_RNvMNtNtCseXwexsNt0j5_10ditto_core7runtime9transportNtB2_23RuntimeTransportRequest3new
FNDA:0,_RNvNtNtCseXwexsNt0j5_10ditto_core7runtime9transport18oauth_field_source
FNDA:1,_RNvNtNtCseXwexsNt0j5_10ditto_core7runtime9transport19env_keys_or_default
FNDA:0,_RNvNtNtCseXwexsNt0j5_10ditto_core7runtime9transport21source_provider_label
FNDA:1,_RNvNtNtCseXwexsNt0j5_10ditto_core7runtime9transport22plan_runtime_transport
FNDA:1,_RNvNtNtCseXwexsNt0j5_10ditto_core7runtime9transport23configured_http_headers
FNDA:1,_RNvNtNtCseXwexsNt0j5_10ditto_core7runtime9transport23configured_query_params
FNDA:1,_RNvNtNtCseXwexsNt0j5_10ditto_core7runtime9transport25apply_default_auth_target
FNDA:1,_RNvNtNtCseXwexsNt0j5_10ditto_core7runtime9transport27resolve_transport_auth_plan
FNDA:0,_RNvNtNtCseXwexsNt0j5_10ditto_core7runtime9transport29transport_auth_plan_from_hint
FNDA:1,_RNvNtNtCseXwexsNt0j5_10ditto_core7runtime9transport30plan_builtin_runtime_transport
FNDA:1,_RNvNtNtCseXwexsNt0j5_10ditto_core7runtime9transport38transport_auth_plan_from_provider_auth
FNDA:0,_RNvXs_NtNtCseXwexsNt0j5_10ditto_core7runtime9transportNtB4_30RuntimeTransportBaseUrlRewriteINtNtCs7dTDQl1DYhd_4core7convert4FromNtNtNtB8_17session_transport6policy23WebsocketBaseUrlRewriteE4from
FNF:29
FNH:18
DA:29,1
DA:30,1
DA:31,1
DA:32,1
DA:33,1
DA:34,1
DA:36,1
DA:37,1
DA:38,1
DA:39,1
DA:40,1
DA:41,1
DA:42,1
DA:44,0
DA:45,0
DA:46,0
DA:47,0
DA:49,1
DA:50,1
DA:51,1
DA:52,1
DA:54,1
DA:55,1
DA:56,1
DA:58,1
DA:59,1
DA:60,1
DA:150,1
DA:151,1
DA:152,1
DA:153,1
DA:154,1
DA:155,1
DA:156,1
DA:157,1
DA:158,1
DA:159,1
DA:161,1
DA:162,1
DA:163,1
DA:164,1
DA:165,1
DA:166,1
DA:167,1
DA:168,1
DA:169,1
DA:170,1
DA:172,1
DA:174,1
DA:175,1
DA:176,1
DA:177,1
DA:178,1
DA:179,1
DA:181,1
DA:182,1
DA:183,1
DA:184,1
DA:186,1
DA:189,1
DA:190,1
DA:191,1
DA:192,1
DA:193,1
DA:194,1
DA:195,1
DA:196,1
DA:197,1
DA:198,1
DA:199,1
DA:200,1
DA:201,1
DA:202,1
DA:203,1
DA:204,1
DA:205,1
DA:206,1
DA:207,1
DA:209,1
DA:211,1
DA:212,1
DA:213,1
DA:214,1
DA:215,1
DA:216,1
DA:219,0
DA:220,0
DA:222,0
DA:225,0
DA:228,0
DA:231,1
DA:232,1
DA:233,1
DA:234,1
DA:235,1
DA:236,1
DA:237,1
DA:238,1
DA:239,1
DA:241,0
DA:243,0
DA:244,0
DA:245,0
DA:246,0
DA:248,0
DA:250,0
DA:251,0
DA:252,0
DA:253,1
DA:255,1
DA:256,1
DA:257,1
DA:258,1
DA:259,1
DA:260,1
DA:261,1
DA:262,1
DA:263,1
DA:264,1
DA:265,1
DA:267,0
DA:268,0
DA:269,0
DA:270,0
DA:271,0
DA:272,0
DA:275,0
DA:276,0
DA:277,0
DA:278,0
DA:279,0
DA:280,0
DA:281,0
DA:282,0
DA:283,0
DA:284,0
DA:285,0
DA:287,0
DA:288,0
DA:289,0
DA:290,0
DA:291,0
DA:292,0
DA:293,0
DA:294,0
DA:295,0
DA:296,0
DA:297,0
DA:299,0
DA:300,0
DA:301,0
DA:302,0
DA:303,0
DA:304,0
DA:305,0
DA:306,0
DA:307,0
DA:308,0
DA:309,0
DA:311,0
DA:312,0
DA:313,0
DA:314,0
DA:315,0
DA:316,0
DA:317,0
DA:318,0
DA:319,0
DA:320,0
DA:321,0
DA:323,0
DA:324,0
DA:325,0
DA:326,0
DA:327,0
DA:328,0
DA:329,0
DA:330,0
DA:331,0
DA:332,0
DA:333,0
DA:334,0
DA:335,0
DA:336,0
DA:337,0
DA:338,0
DA:339,0
DA:340,0
DA:341,0
DA:342,0
DA:343,0
DA:345,0
DA:346,0
DA:347,0
DA:348,0
DA:349,0
DA:350,0
DA:351,0
DA:352,0
DA:354,0
DA:355,0
DA:356,0
DA:357,0
DA:358,0
DA:359,0
DA:360,0
DA:361,0
DA:362,0
DA:363,0
DA:364,0
DA:367,1
DA:369,0
DA:370,0
DA:371,0
DA:372,0
DA:373,0
DA:374,0
DA:377,0
DA:378,0
DA:379,0
DA:380,0
DA:381,0
DA:382,0
DA:383,0
DA:384,0
DA:385,0
DA:386,0
DA:387,0
DA:388,0
DA:389,0
DA:390,0
DA:391,0
DA:392,0
DA:393,0
DA:395,0
DA:397,1
DA:398,1
DA:399,1
DA:400,1
DA:401,1
DA:402,1
DA:403,0
DA:404,0
DA:405,0
DA:406,0
DA:409,1
DA:410,1
DA:411,1
DA:412,1
DA:413,1
DA:414,1
DA:415,1
DA:416,0
DA:417,0
DA:418,0
DA:419,0
DA:420,0
DA:421,0
DA:422,0
DA:423,0
DA:424,0
DA:425,0
DA:427,1
DA:429,1
DA:430,1
DA:431,1
DA:432,0
DA:434,0
DA:435,0
DA:436,0
DA:437,0
DA:438,1
DA:440,0
DA:441,0
DA:442,0
DA:443,0
DA:444,0
DA:445,0
DA:446,0
DA:447,0
DA:448,0
DA:449,0
DA:450,0
DA:451,0
DA:452,0
DA:453,0
DA:455,1
DA:456,1
DA:457,0
DA:460,1
DA:461,1
DA:462,1
DA:463,1
DA:464,1
DA:465,1
DA:466,1
DA:467,1
DA:469,1
DA:470,1
DA:471,1
DA:472,1
DA:473,1
DA:474,1
DA:475,1
DA:476,1
DA:477,1
DA:478,1
DA:479,1
DA:480,1
DA:481,1
DA:482,0
DA:484,0
DA:485,0
DA:486,0
DA:487,0
DA:488,0
DA:489,0
DA:490,0
DA:491,0
DA:492,0
DA:493,0
DA:494,0
DA:495,0
DA:496,0
DA:497,1
DA:499,0
DA:500,0
DA:501,0
DA:502,0
DA:503,0
DA:505,0
BRF:0
BRH:0
LF:342
LH:150
end_of_record
SF:/root/autodl-tmp/zjj/p/ditto-llm/crates/ditto-core/src/runtime_registry/catalog.rs
FN:80,_RNvMNtNtCseXwexsNt0j5_10ditto_core16runtime_registry7catalogNtB2_29BuiltinRuntimeRegistryCatalog13from_registry
FN:84,_RNvMNtNtCseXwexsNt0j5_10ditto_core16runtime_registry7catalogNtB2_29BuiltinRuntimeRegistryCatalog8registry
FN:75,_RNvNtNtCseXwexsNt0j5_10ditto_core16runtime_registry7catalog32builtin_runtime_registry_catalog
FNDA:7,_RNvMNtNtCseXwexsNt0j5_10ditto_core16runtime_registry7catalogNtB2_29BuiltinRuntimeRegistryCatalog13from_registry
FNDA:3,_RNvMNtNtCseXwexsNt0j5_10ditto_core16runtime_registry7catalogNtB2_29BuiltinRuntimeRegistryCatalog8registry
FNDA:2,_RNvNtNtCseXwexsNt0j5_10ditto_core16runtime_registry7catalog32builtin_runtime_registry_catalog
FNF:3
FNH:3
DA:75,2
DA:76,2
DA:77,2
DA:80,7
DA:81,7
DA:82,7
DA:84,3
DA:85,3
DA:86,3
BRF:0
BRH:0
LF:9
LH:9
end_of_record
SF:/root/autodl-tmp/zjj/p/ditto-llm/crates/ditto-core/src/runtime_registry/mod.rs
FN:37,_RNvMNtCseXwexsNt0j5_10ditto_core16runtime_registryNtB2_16ModelTruthSource4role
FN:29,_RNvMNtCseXwexsNt0j5_10ditto_core16runtime_registryNtB2_16ModelTruthSource6as_str
FN:58,_RNvNtCseXwexsNt0j5_10ditto_core16runtime_registry22model_truth_precedence
FNDA:1,_RNvMNtCseXwexsNt0j5_10ditto_core16runtime_registryNtB2_16ModelTruthSource4role
FNDA:3,_RNvMNtCseXwexsNt0j5_10ditto_core16runtime_registryNtB2_16ModelTruthSource6as_str
FNDA:1,_RNvNtCseXwexsNt0j5_10ditto_core16runtime_registry22model_truth_precedence
FNF:3
FNH:3
DA:29,3
DA:30,3
DA:31,1
DA:32,1
DA:33,1
DA:35,3
DA:37,1
DA:38,1
DA:40,0
DA:43,0
DA:46,1
DA:49,1
DA:58,1
DA:59,1
DA:60,1
BRF:0
BRH:0
LF:15
LH:13
end_of_record
SF:/root/autodl-tmp/zjj/p/ditto-llm/crates/ditto-core/src/runtime_registry/queries.rs
FN:19,_RNvMNtNtCseXwexsNt0j5_10ditto_core16runtime_registry7queriesNtNtB4_7catalog29BuiltinRuntimeRegistryCatalog15provider_preset
FN:8,_RNvMNtNtCseXwexsNt0j5_10ditto_core16runtime_registry7queriesNtNtB4_7catalog29BuiltinRuntimeRegistryCatalog16provider_presets
FN:43,_RNvMNtNtCseXwexsNt0j5_10ditto_core16runtime_registry7queriesNtNtB4_7catalog29BuiltinRuntimeRegistryCatalog19models_for_provider
FN:35,_RNvMNtNtCseXwexsNt0j5_10ditto_core16runtime_registry7queriesNtNtB4_7catalog29BuiltinRuntimeRegistryCatalog27provider_capability_summary
FN:60,_RNvMNtNtCseXwexsNt0j5_10ditto_core16runtime_registry7queriesNtNtB4_7catalog29BuiltinRuntimeRegistryCatalog29provider_candidates_for_model
FN:24,_RNvMNtNtCseXwexsNt0j5_10ditto_core16runtime_registry7queriesNtNtB4_7catalog29BuiltinRuntimeRegistryCatalog29provider_capability_summaries
FN:15,_RNCNvMNtNtCseXwexsNt0j5_10ditto_core16runtime_registry7queriesNtNtB6_7catalog29BuiltinRuntimeRegistryCatalog16provider_presets0B8_
FN:54,_RNCNvMNtNtCseXwexsNt0j5_10ditto_core16runtime_registry7queriesNtNtB6_7catalog29BuiltinRuntimeRegistryCatalog19models_for_provider0B8_
FN:56,_RNCNvMNtNtCseXwexsNt0j5_10ditto_core16runtime_registry7queriesNtNtB6_7catalog29BuiltinRuntimeRegistryCatalog19models_for_providers_0B8_
FN:73,_RNCNvMNtNtCseXwexsNt0j5_10ditto_core16runtime_registry7queriesNtNtB6_7catalog29BuiltinRuntimeRegistryCatalog29provider_candidates_for_model0B8_
FN:31,_RNCNvMNtNtCseXwexsNt0j5_10ditto_core16runtime_registry7queriesNtNtB6_7catalog29BuiltinRuntimeRegistryCatalog29provider_capability_summaries0B8_
FN:78,_RNvNtNtCseXwexsNt0j5_10ditto_core16runtime_registry7queries18preset_from_plugin
FN:90,_RNvNtNtCseXwexsNt0j5_10ditto_core16runtime_registry7queries19summary_from_plugin
FN:102,_RNvNtNtCseXwexsNt0j5_10ditto_core16runtime_registry7queries27candidate_from_plugin_model
FNDA:0,_RNvMNtNtCseXwexsNt0j5_10ditto_core16runtime_registry7queriesNtNtB4_7catalog29BuiltinRuntimeRegistryCatalog15provider_preset
FNDA:1,_RNvMNtNtCseXwexsNt0j5_10ditto_core16runtime_registry7queriesNtNtB4_7catalog29BuiltinRuntimeRegistryCatalog16provider_presets
FNDA:0,_RNvMNtNtCseXwexsNt0j5_10ditto_core16runtime_registry7queriesNtNtB4_7catalog29BuiltinRuntimeRegistryCatalog19models_for_provider
FNDA:0,_RNvMNtNtCseXwexsNt0j5_10ditto_core16runtime_registry7queriesNtNtB4_7catalog29BuiltinRuntimeRegistryCatalog27provider_capability_summary
FNDA:0,_RNvMNtNtCseXwexsNt0j5_10ditto_core16runtime_registry7queriesNtNtB4_7catalog29BuiltinRuntimeRegistryCatalog29provider_candidates_for_model
FNDA:2,_RNvMNtNtCseXwexsNt0j5_10ditto_core16runtime_registry7queriesNtNtB4_7catalog29BuiltinRuntimeRegistryCatalog29provider_capability_summaries
FNDA:0,_RNCNvMNtNtCseXwexsNt0j5_10ditto_core16runtime_registry7queriesNtNtB6_7catalog29BuiltinRuntimeRegistryCatalog16provider_presets0B8_
FNDA:0,_RNCNvMNtNtCseXwexsNt0j5_10ditto_core16runtime_registry7queriesNtNtB6_7catalog29BuiltinRuntimeRegistryCatalog19models_for_provider0B8_
FNDA:0,_RNCNvMNtNtCseXwexsNt0j5_10ditto_core16runtime_registry7queriesNtNtB6_7catalog29BuiltinRuntimeRegistryCatalog19models_for_providers_0B8_
FNDA:0,_RNCNvMNtNtCseXwexsNt0j5_10ditto_core16runtime_registry7queriesNtNtB6_7catalog29BuiltinRuntimeRegistryCatalog29provider_candidates_for_model0B8_
FNDA:0,_RNCNvMNtNtCseXwexsNt0j5_10ditto_core16runtime_registry7queriesNtNtB6_7catalog29BuiltinRuntimeRegistryCatalog29provider_capability_summaries0B8_
FNDA:1,_RNvNtNtCseXwexsNt0j5_10ditto_core16runtime_registry7queries18preset_from_plugin
FNDA:2,_RNvNtNtCseXwexsNt0j5_10ditto_core16runtime_registry7queries19summary_from_plugin
FNDA:0,_RNvNtNtCseXwexsNt0j5_10ditto_core16runtime_registry7queries27candidate_from_plugin_model
FNF:14
FNH:4
DA:8,1
DA:9,1
DA:10,1
DA:11,1
DA:12,1
DA:13,1
DA:14,1
DA:15,1
DA:16,1
DA:17,1
DA:19,0
DA:20,0
DA:21,0
DA:22,0
DA:24,2
DA:25,2
DA:26,2
DA:27,2
DA:28,2
DA:29,2
DA:30,2
DA:31,2
DA:32,2
DA:33,2
DA:35,0
DA:36,0
DA:37,0
DA:38,0
DA:39,0
DA:40,0
DA:41,0
DA:43,0
DA:44,0
DA:45,0
DA:46,0
DA:47,0
DA:48,0
DA:51,0
DA:52,0
DA:53,0
DA:54,0
DA:55,0
DA:56,0
DA:57,0
DA:58,0
DA:60,0
DA:61,0
DA:62,0
DA:63,0
DA:65,0
DA:66,0
DA:67,0
DA:68,0
DA:69,0
DA:70,0
DA:73,0
DA:74,0
DA:75,0
DA:78,1
DA:79,1
DA:80,1
DA:81,1
DA:82,1
DA:83,1
DA:84,1
DA:85,1
DA:86,1
DA:87,1
DA:88,1
DA:90,2
DA:91,2
DA:92,2
DA:93,2
DA:94,2
DA:95,2
DA:96,2
DA:97,2
DA:98,2
DA:99,2
DA:100,2
DA:102,0
DA:103,0
DA:104,0
DA:105,0
DA:106,0
DA:107,0
DA:108,0
DA:109,0
DA:110,0
DA:111,0
DA:112,0
DA:113,0
DA:114,0
DA:115,0
BRF:0
BRH:0
LF:99
LH:42
end_of_record
SF:/root/autodl-tmp/zjj/p/ditto-llm/crates/ditto-core/src/runtime_registry/semantics.rs
FN:107,_RNvMNtNtCseXwexsNt0j5_10ditto_core16runtime_registry9semanticsNtNtB4_7catalog29BuiltinRuntimeRegistryCatalog24resolve_builder_provider
FN:121,_RNvMNtNtCseXwexsNt0j5_10ditto_core16runtime_registry9semanticsNtNtB4_7catalog29BuiltinRuntimeRegistryCatalog28provider_supports_capability
FN:200,_RNvMNtNtCseXwexsNt0j5_10ditto_core16runtime_registry9semanticsNtNtB4_7catalog29BuiltinRuntimeRegistryCatalog29resolve_context_cache_profile
FN:257,_RNvMNtNtCseXwexsNt0j5_10ditto_core16runtime_registry9semanticsNtNtB4_7catalog29BuiltinRuntimeRegistryCatalog30provider_supports_file_builder
FN:17,_RNvMNtNtCseXwexsNt0j5_10ditto_core16runtime_registry9semanticsNtNtB4_7catalog29BuiltinRuntimeRegistryCatalog33resolve_provider_config_semantics
FN:300,_RNvMNtNtCseXwexsNt0j5_10ditto_core16runtime_registry9semanticsNtNtB4_7catalog29BuiltinRuntimeRegistryCatalog37provider_required_tool_choice_support
FN:224,_RNvMNtNtCseXwexsNt0j5_10ditto_core16runtime_registry9semanticsNtNtB4_7catalog29BuiltinRuntimeRegistryCatalog37resolve_catalog_context_cache_profile
FN:145,_RNvMNtNtCseXwexsNt0j5_10ditto_core16runtime_registry9semanticsNtNtB4_7catalog29BuiltinRuntimeRegistryCatalog42validate_runtime_route_for_provider_config
FN:277,_RNvMNtNtCseXwexsNt0j5_10ditto_core16runtime_registry9semanticsNtNtB4_7catalog29BuiltinRuntimeRegistryCatalog44provider_requires_reasoning_content_followup
FN:66,_RNvMNtNtCseXwexsNt0j5_10ditto_core16runtime_registry9semanticsNtNtB4_7catalog29BuiltinRuntimeRegistryCatalog53resolve_openai_compatible_provider_capability_profile
FN:427,_RNCNCNvNtNtCseXwexsNt0j5_10ditto_core16runtime_registry9semantics27legacy_builder_alias_plugin00B9_
FN:137,_RNCNvMNtNtCseXwexsNt0j5_10ditto_core16runtime_registry9semanticsNtNtB6_7catalog29BuiltinRuntimeRegistryCatalog28provider_supports_capability0B8_
FN:33,_RNCNvMNtNtCseXwexsNt0j5_10ditto_core16runtime_registry9semanticsNtNtB6_7catalog29BuiltinRuntimeRegistryCatalog33resolve_provider_config_semantics0B8_
FN:54,_RNCNvMNtNtCseXwexsNt0j5_10ditto_core16runtime_registry9semanticsNtNtB6_7catalog29BuiltinRuntimeRegistryCatalog33resolve_provider_config_semanticss0_0B8_
FN:55,_RNCNvMNtNtCseXwexsNt0j5_10ditto_core16runtime_registry9semanticsNtNtB6_7catalog29BuiltinRuntimeRegistryCatalog33resolve_provider_config_semanticss1_0B8_
FN:53,_RNCNvMNtNtCseXwexsNt0j5_10ditto_core16runtime_registry9semanticsNtNtB6_7catalog29BuiltinRuntimeRegistryCatalog33resolve_provider_config_semanticss_0B8_
FN:309,_RNCNvMNtNtCseXwexsNt0j5_10ditto_core16runtime_registry9semanticsNtNtB6_7catalog29BuiltinRuntimeRegistryCatalog37provider_required_tool_choice_support0B8_
FN:166,_RNCNvMNtNtCseXwexsNt0j5_10ditto_core16runtime_registry9semanticsNtNtB6_7catalog29BuiltinRuntimeRegistryCatalog42validate_runtime_route_for_provider_config0B8_
FN:186,_RNCNvMNtNtCseXwexsNt0j5_10ditto_core16runtime_registry9semanticsNtNtB6_7catalog29BuiltinRuntimeRegistryCatalog42validate_runtime_route_for_provider_configs_0B8_
FN:286,_RNCNvMNtNtCseXwexsNt0j5_10ditto_core16runtime_registry9semanticsNtNtB6_7catalog29BuiltinRuntimeRegistryCatalog44provider_requires_reasoning_content_followup0B8_
FN:80,_RNCNvMNtNtCseXwexsNt0j5_10ditto_core16runtime_registry9semanticsNtNtB6_7catalog29BuiltinRuntimeRegistryCatalog53resolve_openai_compatible_provider_capability_profile0B8_
FN:90,_RNCNvMNtNtCseXwexsNt0j5_10ditto_core16runtime_registry9semanticsNtNtB6_7catalog29BuiltinRuntimeRegistryCatalog53resolve_openai_compatible_provider_capability_profiles0_0B8_
FN:96,_RNCNvMNtNtCseXwexsNt0j5_10ditto_core16runtime_registry9semanticsNtNtB6_7catalog29BuiltinRuntimeRegistryCatalog53resolve_openai_compatible_provider_capability_profiles1_0B8_
FN:89,_RNCNvMNtNtCseXwexsNt0j5_10ditto_core16runtime_registry9semanticsNtNtB6_7catalog29BuiltinRuntimeRegistryCatalog53resolve_openai_compatible_provider_capability_profiles_0B8_
FN:450,_RNCNvNtNtCseXwexsNt0j5_10ditto_core16runtime_registry9semantics25normalized_provider_alias0B7_
FN:451,_RNCNvNtNtCseXwexsNt0j5_10ditto_core16runtime_registry9semantics25normalized_provider_aliass_0B7_
FN:487,_RNCNvNtNtCseXwexsNt0j5_10ditto_core16runtime_registry9semantics26infer_enabled_capabilities0B7_
FN:502,_RNCNvNtNtCseXwexsNt0j5_10ditto_core16runtime_registry9semantics26infer_enabled_capabilitiess0_0B7_
FN:494,_RNCNvNtNtCseXwexsNt0j5_10ditto_core16runtime_registry9semantics26infer_enabled_capabilitiess_0B7_
FN:424,_RNCNvNtNtCseXwexsNt0j5_10ditto_core16runtime_registry9semantics27legacy_builder_alias_plugin0B7_
FN:347,_RNCNvNtNtCseXwexsNt0j5_10ditto_core16runtime_registry9semantics30resolve_builder_catalog_plugin0B7_
FN:398,_RNCNvNtNtCseXwexsNt0j5_10ditto_core16runtime_registry9semantics31resolve_explicit_catalog_plugin0B7_
FN:399,_RNCNvNtNtCseXwexsNt0j5_10ditto_core16runtime_registry9semantics31resolve_explicit_catalog_plugins_0B7_
FN:608,_RNCNvNtNtCseXwexsNt0j5_10ditto_core16runtime_registry9semantics32builder_plugin_from_upstream_api0B7_
FN:359,_RNCNvNtNtCseXwexsNt0j5_10ditto_core16runtime_registry9semantics33resolve_configured_catalog_plugin0B7_
FN:371,_RNCNvNtNtCseXwexsNt0j5_10ditto_core16runtime_registry9semantics33resolve_configured_catalog_plugins0_0B7_
FN:379,_RNCNvNtNtCseXwexsNt0j5_10ditto_core16runtime_registry9semantics33resolve_configured_catalog_plugins1_0B7_
FN:361,_RNCNvNtNtCseXwexsNt0j5_10ditto_core16runtime_registry9semantics33resolve_configured_catalog_plugins_0B7_
FN:569,_RNCNvNtNtCseXwexsNt0j5_10ditto_core16runtime_registry9semantics35validate_runtime_base_url_available0B7_
FN:585,_RNCNvNtNtCseXwexsNt0j5_10ditto_core16runtime_registry9semantics35validate_runtime_base_url_availables0_0B7_
FN:578,_RNCNvNtNtCseXwexsNt0j5_10ditto_core16runtime_registry9semantics35validate_runtime_base_url_availables_0B7_
FN:729,_RNCNvNtNtCseXwexsNt0j5_10ditto_core16runtime_registry9semantics37resolve_catalog_context_cache_profiles0_0B7_
FN:692,_RNCNvNtNtCseXwexsNt0j5_10ditto_core16runtime_registry9semantics37resolve_catalog_context_cache_profiles_0B7_
FN:548,_RNCNvNtNtCseXwexsNt0j5_10ditto_core16runtime_registry9semantics37validate_runtime_enabled_capabilities0B7_
FN:409,_RNCNvNtNtCseXwexsNt0j5_10ditto_core16runtime_registry9semantics38resolve_configured_catalog_plugin_hint0B7_
FN:645,_RNvNtNtCseXwexsNt0j5_10ditto_core16runtime_registry9semantics23push_context_cache_mode
FN:412,_RNvNtNtCseXwexsNt0j5_10ditto_core16runtime_registry9semantics25namespaced_catalog_plugin
FN:446,_RNvNtNtCseXwexsNt0j5_10ditto_core16runtime_registry9semantics25normalized_provider_alias
FN:651,_RNvNtNtCseXwexsNt0j5_10ditto_core16runtime_registry9semantics26extend_context_cache_modes
FN:471,_RNvNtNtCseXwexsNt0j5_10ditto_core16runtime_registry9semantics26infer_enabled_capabilities
FN:507,_RNvNtNtCseXwexsNt0j5_10ditto_core16runtime_registry9semantics27capability_for_provider_api
FN:420,_RNvNtNtCseXwexsNt0j5_10ditto_core16runtime_registry9semantics27legacy_builder_alias_plugin
FN:455,_RNvNtNtCseXwexsNt0j5_10ditto_core16runtime_registry9semantics29parse_enabled_capability_list
FN:336,_RNvNtNtCseXwexsNt0j5_10ditto_core16runtime_registry9semantics30resolve_builder_catalog_plugin
FN:387,_RNvNtNtCseXwexsNt0j5_10ditto_core16runtime_registry9semantics31resolve_explicit_catalog_plugin
FN:598,_RNvNtNtCseXwexsNt0j5_10ditto_core16runtime_registry9semantics32builder_plugin_from_upstream_api
FN:350,_RNvNtNtCseXwexsNt0j5_10ditto_core16runtime_registry9semantics33resolve_configured_catalog_plugin
FN:554,_RNvNtNtCseXwexsNt0j5_10ditto_core16runtime_registry9semantics35normalized_runtime_validation_hints
FN:562,_RNvNtNtCseXwexsNt0j5_10ditto_core16runtime_registry9semantics35validate_runtime_base_url_available
FN:632,_RNvNtNtCseXwexsNt0j5_10ditto_core16runtime_registry9semantics37catalog_default_provider_capabilities
FN:674,_RNvNtNtCseXwexsNt0j5_10ditto_core16runtime_registry9semantics37resolve_catalog_context_cache_profile
FN:516,_RNvNtNtCseXwexsNt0j5_10ditto_core16runtime_registry9semantics37validate_runtime_enabled_capabilities
FN:613,_RNvNtNtCseXwexsNt0j5_10ditto_core16runtime_registry9semantics38canonical_builder_provider_from_plugin
FN:402,_RNvNtNtCseXwexsNt0j5_10ditto_core16runtime_registry9semantics38resolve_configured_catalog_plugin_hint
FN:319,_RNvNtNtCseXwexsNt0j5_10ditto_core16runtime_registry9semantics40resolve_openai_compatible_catalog_plugin
FN:252,_RNCNvMNtNtCseXwexsNt0j5_10ditto_core16runtime_registry9semanticsNtNtB6_7catalog29BuiltinRuntimeRegistryCatalog27provider_supports_operation0B8_
FN:239,_RNvMNtNtCseXwexsNt0j5_10ditto_core16runtime_registry9semanticsNtNtB4_7catalog29BuiltinRuntimeRegistryCatalog27provider_supports_operation
FNDA:0,_RNvMNtNtCseXwexsNt0j5_10ditto_core16runtime_registry9semanticsNtNtB4_7catalog29BuiltinRuntimeRegistryCatalog24resolve_builder_provider
FNDA:0,_RNvMNtNtCseXwexsNt0j5_10ditto_core16runtime_registry9semanticsNtNtB4_7catalog29BuiltinRuntimeRegistryCatalog28provider_supports_capability
FNDA:0,_RNvMNtNtCseXwexsNt0j5_10ditto_core16runtime_registry9semanticsNtNtB4_7catalog29BuiltinRuntimeRegistryCatalog29resolve_context_cache_profile
FNDA:0,_RNvMNtNtCseXwexsNt0j5_10ditto_core16runtime_registry9semanticsNtNtB4_7catalog29BuiltinRuntimeRegistryCatalog30provider_supports_file_builder
FNDA:0,_RNvMNtNtCseXwexsNt0j5_10ditto_core16runtime_registry9semanticsNtNtB4_7catalog29BuiltinRuntimeRegistryCatalog33resolve_provider_config_semantics
FNDA:0,_RNvMNtNtCseXwexsNt0j5_10ditto_core16runtime_registry9semanticsNtNtB4_7catalog29BuiltinRuntimeRegistryCatalog37provider_required_tool_choice_support
FNDA:0,_RNvMNtNtCseXwexsNt0j5_10ditto_core16runtime_registry9semanticsNtNtB4_7catalog29BuiltinRuntimeRegistryCatalog37resolve_catalog_context_cache_profile
FNDA:0,_RNvMNtNtCseXwexsNt0j5_10ditto_core16runtime_registry9semanticsNtNtB4_7catalog29BuiltinRuntimeRegistryCatalog42validate_runtime_route_for_provider_config
FNDA:0,_RNvMNtNtCseXwexsNt0j5_10ditto_core16runtime_registry9semanticsNtNtB4_7catalog29BuiltinRuntimeRegistryCatalog44provider_requires_reasoning_content_followup
FNDA:0,_RNvMNtNtCseXwexsNt0j5_10ditto_core16runtime_registry9semanticsNtNtB4_7catalog29BuiltinRuntimeRegistryCatalog53resolve_openai_compatible_provider_capability_profile
FNDA:0,_RNCNCNvNtNtCseXwexsNt0j5_10ditto_core16runtime_registry9semantics27legacy_builder_alias_plugin00B9_
FNDA:0,_RNCNvMNtNtCseXwexsNt0j5_10ditto_core16runtime_registry9semanticsNtNtB6_7catalog29BuiltinRuntimeRegistryCatalog28provider_supports_capability0B8_
FNDA:0,_RNCNvMNtNtCseXwexsNt0j5_10ditto_core16runtime_registry9semanticsNtNtB6_7catalog29BuiltinRuntimeRegistryCatalog33resolve_provider_config_semantics0B8_
FNDA:0,_RNCNvMNtNtCseXwexsNt0j5_10ditto_core16runtime_registry9semanticsNtNtB6_7catalog29BuiltinRuntimeRegistryCatalog33resolve_provider_config_semanticss0_0B8_
FNDA:0,_RNCNvMNtNtCseXwexsNt0j5_10ditto_core16runtime_registry9semanticsNtNtB6_7catalog29BuiltinRuntimeRegistryCatalog33resolve_provider_config_semanticss1_0B8_
FNDA:0,_RNCNvMNtNtCseXwexsNt0j5_10ditto_core16runtime_registry9semanticsNtNtB6_7catalog29BuiltinRuntimeRegistryCatalog33resolve_provider_config_semanticss_0B8_
FNDA:0,_RNCNvMNtNtCseXwexsNt0j5_10ditto_core16runtime_registry9semanticsNtNtB6_7catalog29BuiltinRuntimeRegistryCatalog37provider_required_tool_choice_support0B8_
FNDA:0,_RNCNvMNtNtCseXwexsNt0j5_10ditto_core16runtime_registry9semanticsNtNtB6_7catalog29BuiltinRuntimeRegistryCatalog42validate_runtime_route_for_provider_config0B8_
FNDA:0,_RNCNvMNtNtCseXwexsNt0j5_10ditto_core16runtime_registry9semanticsNtNtB6_7catalog29BuiltinRuntimeRegistryCatalog42validate_runtime_route_for_provider_configs_0B8_
FNDA:0,_RNCNvMNtNtCseXwexsNt0j5_10ditto_core16runtime_registry9semanticsNtNtB6_7catalog29BuiltinRuntimeRegistryCatalog44provider_requires_reasoning_content_followup0B8_
FNDA:0,_RNCNvMNtNtCseXwexsNt0j5_10ditto_core16runtime_registry9semanticsNtNtB6_7catalog29BuiltinRuntimeRegistryCatalog53resolve_openai_compatible_provider_capability_profile0B8_
FNDA:0,_RNCNvMNtNtCseXwexsNt0j5_10ditto_core16runtime_registry9semanticsNtNtB6_7catalog29BuiltinRuntimeRegistryCatalog53resolve_openai_compatible_provider_capability_profiles0_0B8_
FNDA:0,_RNCNvMNtNtCseXwexsNt0j5_10ditto_core16runtime_registry9semanticsNtNtB6_7catalog29BuiltinRuntimeRegistryCatalog53resolve_openai_compatible_provider_capability_profiles1_0B8_
FNDA:0,_RNCNvMNtNtCseXwexsNt0j5_10ditto_core16runtime_registry9semanticsNtNtB6_7catalog29BuiltinRuntimeRegistryCatalog53resolve_openai_compatible_provider_capability_profiles_0B8_
FNDA:0,_RNCNvNtNtCseXwexsNt0j5_10ditto_core16runtime_registry9semantics25normalized_provider_alias0B7_
FNDA:0,_RNCNvNtNtCseXwexsNt0j5_10ditto_core16runtime_registry9semantics25normalized_provider_aliass_0B7_
FNDA:0,_RNCNvNtNtCseXwexsNt0j5_10ditto_core16runtime_registry9semantics26infer_enabled_capabilities0B7_
FNDA:0,_RNCNvNtNtCseXwexsNt0j5_10ditto_core16runtime_registry9semantics26infer_enabled_capabilitiess0_0B7_
FNDA:0,_RNCNvNtNtCseXwexsNt0j5_10ditto_core16runtime_registry9semantics26infer_enabled_capabilitiess_0B7_
FNDA:0,_RNCNvNtNtCseXwexsNt0j5_10ditto_core16runtime_registry9semantics27legacy_builder_alias_plugin0B7_
FNDA:0,_RNCNvNtNtCseXwexsNt0j5_10ditto_core16runtime_registry9semantics30resolve_builder_catalog_plugin0B7_
FNDA:0,_RNCNvNtNtCseXwexsNt0j5_10ditto_core16runtime_registry9semantics31resolve_explicit_catalog_plugin0B7_
FNDA:0,_RNCNvNtNtCseXwexsNt0j5_10ditto_core16runtime_registry9semantics31resolve_explicit_catalog_plugins_0B7_
FNDA:0,_RNCNvNtNtCseXwexsNt0j5_10ditto_core16runtime_registry9semantics32builder_plugin_from_upstream_api0B7_
FNDA:0,_RNCNvNtNtCseXwexsNt0j5_10ditto_core16runtime_registry9semantics33resolve_configured_catalog_plugin0B7_
FNDA:0,_RNCNvNtNtCseXwexsNt0j5_10ditto_core16runtime_registry9semantics33resolve_configured_catalog_plugins0_0B7_
FNDA:0,_RNCNvNtNtCseXwexsNt0j5_10ditto_core16runtime_registry9semantics33resolve_configured_catalog_plugins1_0B7_
FNDA:0,_RNCNvNtNtCseXwexsNt0j5_10ditto_core16runtime_registry9semantics33resolve_configured_catalog_plugins_0B7_
FNDA:0,_RNCNvNtNtCseXwexsNt0j5_10ditto_core16runtime_registry9semantics35validate_runtime_base_url_available0B7_
FNDA:0,_RNCNvNtNtCseXwexsNt0j5_10ditto_core16runtime_registry9semantics35validate_runtime_base_url_availables0_0B7_
FNDA:0,_RNCNvNtNtCseXwexsNt0j5_10ditto_core16runtime_registry9semantics35validate_runtime_base_url_availables_0B7_
FNDA:0,_RNCNvNtNtCseXwexsNt0j5_10ditto_core16runtime_registry9semantics37resolve_catalog_context_cache_profiles0_0B7_
FNDA:0,_RNCNvNtNtCseXwexsNt0j5_10ditto_core16runtime_registry9semantics37resolve_catalog_context_cache_profiles_0B7_
FNDA:0,_RNCNvNtNtCseXwexsNt0j5_10ditto_core16runtime_registry9semantics37validate_runtime_enabled_capabilities0B7_
FNDA:0,_RNCNvNtNtCseXwexsNt0j5_10ditto_core16runtime_registry9semantics38resolve_configured_catalog_plugin_hint0B7_
FNDA:0,_RNvNtNtCseXwexsNt0j5_10ditto_core16runtime_registry9semantics23push_context_cache_mode
FNDA:0,_RNvNtNtCseXwexsNt0j5_10ditto_core16runtime_registry9semantics25namespaced_catalog_plugin
FNDA:0,_RNvNtNtCseXwexsNt0j5_10ditto_core16runtime_registry9semantics25normalized_provider_alias
FNDA:0,_RNvNtNtCseXwexsNt0j5_10ditto_core16runtime_registry9semantics26extend_context_cache_modes
FNDA:0,_RNvNtNtCseXwexsNt0j5_10ditto_core16runtime_registry9semantics26infer_enabled_capabilities
FNDA:0,_RNvNtNtCseXwexsNt0j5_10ditto_core16runtime_registry9semantics27capability_for_provider_api
FNDA:0,_RNvNtNtCseXwexsNt0j5_10ditto_core16runtime_registry9semantics27legacy_builder_alias_plugin
FNDA:0,_RNvNtNtCseXwexsNt0j5_10ditto_core16runtime_registry9semantics29parse_enabled_capability_list
FNDA:0,_RNvNtNtCseXwexsNt0j5_10ditto_core16runtime_registry9semantics30resolve_builder_catalog_plugin
FNDA:0,_RNvNtNtCseXwexsNt0j5_10ditto_core16runtime_registry9semantics31resolve_explicit_catalog_plugin
FNDA:0,_RNvNtNtCseXwexsNt0j5_10ditto_core16runtime_registry9semantics32builder_plugin_from_upstream_api
FNDA:0,_RNvNtNtCseXwexsNt0j5_10ditto_core16runtime_registry9semantics33resolve_configured_catalog_plugin
FNDA:0,_RNvNtNtCseXwexsNt0j5_10ditto_core16runtime_registry9semantics35normalized_runtime_validation_hints
FNDA:0,_RNvNtNtCseXwexsNt0j5_10ditto_core16runtime_registry9semantics35validate_runtime_base_url_available
FNDA:0,_RNvNtNtCseXwexsNt0j5_10ditto_core16runtime_registry9semantics37catalog_default_provider_capabilities
FNDA:0,_RNvNtNtCseXwexsNt0j5_10ditto_core16runtime_registry9semantics37resolve_catalog_context_cache_profile
FNDA:0,_RNvNtNtCseXwexsNt0j5_10ditto_core16runtime_registry9semantics37validate_runtime_enabled_capabilities
FNDA:0,_RNvNtNtCseXwexsNt0j5_10ditto_core16runtime_registry9semantics38canonical_builder_provider_from_plugin
FNDA:0,_RNvNtNtCseXwexsNt0j5_10ditto_core16runtime_registry9semantics38resolve_configured_catalog_plugin_hint
FNDA:0,_RNvNtNtCseXwexsNt0j5_10ditto_core16runtime_registry9semantics40resolve_openai_compatible_catalog_plugin
FNDA:0,_RNCNvMNtNtCseXwexsNt0j5_10ditto_core16runtime_registry9semanticsNtNtB6_7catalog29BuiltinRuntimeRegistryCatalog27provider_supports_operation0B8_
FNDA:0,_RNvMNtNtCseXwexsNt0j5_10ditto_core16runtime_registry9semanticsNtNtB4_7catalog29BuiltinRuntimeRegistryCatalog27provider_supports_operation
FNF:67
FNH:0
DA:17,0
DA:18,0
DA:19,0
DA:20,0
DA:21,0
DA:22,0
DA:23,0
DA:24,0
DA:25,0
DA:26,0
DA:27,0
DA:28,0
DA:29,0
DA:31,0
DA:33,0
DA:34,0
DA:36,0
DA:37,0
DA:38,0
DA:39,0
DA:40,0
DA:41,0
DA:42,0
DA:43,0
DA:46,0
DA:47,0
DA:49,0
DA:50,0
DA:51,0
DA:52,0
DA:53,0
DA:54,0
DA:55,0
DA:56,0
DA:57,0
DA:59,0
DA:60,0
DA:61,0
DA:62,0
DA:63,0
DA:64,0
DA:66,0
DA:67,0
DA:68,0
DA:69,0
DA:70,0
DA:71,0
DA:72,0
DA:73,0
DA:74,0
DA:75,0
DA:76,0
DA:77,0
DA:78,0
DA:79,0
DA:80,0
DA:81,0
DA:83,0
DA:84,0
DA:86,0
DA:87,0
DA:88,0
DA:89,0
DA:90,0
DA:91,0
DA:92,0
DA:94,0
DA:95,0
DA:96,0
DA:98,0
DA:99,0
DA:100,0
DA:101,0
DA:102,0
DA:103,0
DA:104,0
DA:105,0
DA:107,0
DA:108,0
DA:109,0
DA:110,0
DA:111,0
DA:112,0
DA:113,0
DA:115,0
DA:116,0
DA:117,0
DA:119,0
DA:121,0
DA:122,0
DA:123,0
DA:124,0
DA:125,0
DA:126,0
DA:127,0
DA:128,0
DA:129,0
DA:131,0
DA:134,0
DA:135,0
DA:137,0
DA:140,0
DA:141,0
DA:142,0
DA:143,0
DA:145,0
DA:146,0
DA:147,0
DA:148,0
DA:149,0
DA:150,0
DA:151,0
DA:152,0
DA:153,0
DA:154,0
DA:155,0
DA:156,0
DA:158,0
DA:159,0
DA:160,0
DA:161,0
DA:163,0
DA:164,0
DA:165,0
DA:166,0
DA:167,0
DA:169,0
DA:171,0
DA:172,0
DA:173,0
DA:174,0
DA:175,0
DA:176,0
DA:177,0
DA:178,0
DA:179,0
DA:181,0
DA:182,0
DA:183,0
DA:184,0
DA:185,0
DA:186,0
DA:187,0
DA:188,0
DA:189,0
DA:191,0
DA:192,0
DA:193,0
DA:194,0
DA:195,0
DA:197,0
DA:198,0
DA:200,0
DA:201,0
DA:202,0
DA:203,0
DA:204,0
DA:205,0
DA:206,0
DA:207,0
DA:208,0
DA:209,0
DA:211,0
DA:212,0
DA:213,0
DA:214,0
DA:224,0
DA:225,0
DA:226,0
DA:227,0
DA:228,0
DA:229,0
DA:230,0
DA:231,0
DA:232,0
DA:234,0
DA:235,0
DA:236,0
DA:239,0
DA:240,0
DA:241,0
DA:242,0
DA:243,0
DA:244,0
DA:245,0
DA:246,0
DA:247,0
DA:248,0
DA:250,0
DA:251,0
DA:252,0
DA:253,0
DA:254,0
DA:257,0
DA:258,0
DA:259,0
DA:260,0
DA:261,0
DA:262,0
DA:263,0
DA:264,0
DA:265,0
DA:267,0
DA:277,0
DA:278,0
DA:279,0
DA:280,0
DA:281,0
DA:282,0
DA:283,0
DA:284,0
DA:285,0
DA:286,0
DA:287,0
DA:290,0
DA:300,0
DA:301,0
DA:302,0
DA:303,0
DA:304,0
DA:305,0
DA:306,0
DA:307,0
DA:308,0
DA:309,0
DA:310,0
DA:312,0
DA:313,0
DA:314,0
DA:316,0
DA:319,0
DA:320,0
DA:321,0
DA:322,0
DA:323,0
DA:324,0
DA:325,0
DA:326,0
DA:327,0
DA:328,0
DA:329,0
DA:330,0
DA:331,0
DA:332,0
DA:334,0
DA:336,0
DA:337,0
DA:338,0
DA:339,0
DA:340,0
DA:341,0
DA:342,0
DA:343,0
DA:344,0
DA:346,0
DA:347,0
DA:348,0
DA:350,0
DA:351,0
DA:352,0
DA:353,0
DA:354,0
DA:355,0
DA:356,0
DA:357,0
DA:358,0
DA:359,0
DA:361,0
DA:362,0
DA:363,0
DA:364,0
DA:365,0
DA:366,0
DA:367,0
DA:369,0
DA:370,0
DA:371,0
DA:372,0
DA:373,0
DA:374,0
DA:375,0
DA:376,0
DA:377,0
DA:379,0
DA:380,0
DA:381,0
DA:382,0
DA:383,0
DA:384,0
DA:385,0
DA:387,0
DA:388,0
DA:389,0
DA:390,0
DA:391,0
DA:392,0
DA:393,0
DA:394,0
DA:396,0
DA:397,0
DA:398,0
DA:399,0
DA:400,0
DA:402,0
DA:403,0
DA:404,0
DA:405,0
DA:406,0
DA:407,0
DA:408,0
DA:409,0
DA:410,0
DA:412,0
DA:413,0
DA:414,0
DA:415,0
DA:416,0
DA:417,0
DA:418,0
DA:420,0
DA:421,0
DA:422,0
DA:423,0
DA:424,0
DA:425,0
DA:426,0
DA:427,0
DA:428,0
DA:430,0
DA:431,0
DA:432,0
DA:433,0
DA:435,0
DA:436,0
DA:437,0
DA:438,0
DA:439,0
DA:440,0
DA:441,0
DA:442,0
DA:444,0
DA:446,0
DA:447,0
DA:448,0
DA:449,0
DA:450,0
DA:451,0
DA:452,0
DA:453,0
DA:455,0
DA:456,0
DA:457,0
DA:458,0
DA:459,0
DA:460,0
DA:461,0
DA:462,0
DA:464,0
DA:465,0
DA:466,0
DA:468,0
DA:469,0
DA:471,0
DA:472,0
DA:473,0
DA:474,0
DA:475,0
DA:476,0
DA:477,0
DA:479,0
DA:480,0
DA:481,0
DA:483,0
DA:484,0
DA:485,0
DA:486,0
DA:487,0
DA:489,0
DA:490,0
DA:491,0
DA:492,0
DA:493,0
DA:494,0
DA:495,0
DA:496,0
DA:497,0
DA:498,0
DA:499,0
DA:501,0
DA:502,0
DA:503,0
DA:504,0
DA:505,0
DA:507,0
DA:508,0
DA:512,0
DA:514,0
DA:516,0
DA:517,0
DA:518,0
DA:519,0
DA:520,0
DA:521,0
DA:522,0
DA:523,0
DA:525,0
DA:526,0
DA:527,0
DA:528,0
DA:529,0
DA:530,0
DA:531,0
DA:533,0
DA:534,0
DA:535,0
DA:538,0
DA:539,0
DA:540,0
DA:543,0
DA:544,0
DA:545,0
DA:546,0
DA:547,0
DA:548,0
DA:549,0
DA:551,0
DA:552,0
DA:554,0
DA:555,0
DA:556,0
DA:557,0
DA:558,0
DA:559,0
DA:560,0
DA:562,0
DA:563,0
DA:564,0
DA:565,0
DA:566,0
DA:567,0
DA:568,0
DA:569,0
DA:571,0
DA:572,0
DA:574,0
DA:575,0
DA:576,0
DA:577,0
DA:578,0
DA:580,0
DA:581,0
DA:583,0
DA:584,0
DA:585,0
DA:587,0
DA:588,0
DA:590,0
DA:591,0
DA:593,0
DA:596,0
DA:598,0
DA:599,0
DA:600,0
DA:601,0
DA:602,0
DA:603,0
DA:604,0
DA:606,0
DA:607,0
DA:608,0
DA:611,0
DA:613,0
DA:614,0
DA:615,0
DA:616,0
DA:617,0
DA:618,0
DA:619,0
DA:620,0
DA:621,0
DA:622,0
DA:623,0
DA:625,0
DA:627,0
DA:630,0
DA:632,0
DA:633,0
DA:634,0
DA:635,0
DA:636,0
DA:637,0
DA:639,0
DA:640,0
DA:641,0
DA:643,0
DA:645,0
DA:646,0
DA:647,0
DA:648,0
DA:649,0
DA:651,0
DA:652,0
DA:653,0
DA:654,0
DA:655,0
DA:656,0
DA:657,0
DA:658,0
DA:659,0
DA:660,0
DA:661,0
DA:662,0
DA:663,0
DA:664,0
DA:665,0
DA:666,0
DA:669,0
DA:674,0
DA:675,0
DA:676,0
DA:677,0
DA:678,0
DA:679,0
DA:680,0
DA:682,0
DA:683,0
DA:685,0
DA:686,0
DA:687,0
DA:689,0
DA:690,0
DA:691,0
DA:692,0
DA:693,0
DA:694,0
DA:695,0
DA:696,0
DA:697,0
DA:700,0
DA:701,0
DA:702,0
DA:703,0
DA:704,0
DA:705,0
DA:706,0
DA:707,0
DA:708,0
DA:709,0
DA:710,0
DA:711,0
DA:712,0
DA:713,0
DA:716,0
DA:717,0
DA:718,0
DA:719,0
DA:720,0
DA:721,0
DA:723,0
DA:724,0
DA:725,0
DA:728,0
DA:729,0
DA:731,0
BRF:0
BRH:0
LF:600
LH:0
end_of_record
SF:/root/autodl-tmp/zjj/p/ditto-llm/crates/ditto-core/src/runtime_registry/snapshot.rs
FN:26,_RNCNvMNtNtCseXwexsNt0j5_10ditto_core16runtime_registry8snapshotNtB4_23RuntimeRegistrySnapshot13from_registry0B8_
FN:35,_RNCNvMNtNtCseXwexsNt0j5_10ditto_core16runtime_registry8snapshotNtB4_23RuntimeRegistrySnapshot8provider0B8_
FN:158,_RNCNvMs0_NtNtCseXwexsNt0j5_10ditto_core16runtime_registry8snapshotNtB7_25RuntimeRegistryModelEntry10from_model0Bb_
FN:171,_RNCNvMs0_NtNtCseXwexsNt0j5_10ditto_core16runtime_registry8snapshotNtB7_25RuntimeRegistryModelEntry10from_models_0Bb_
FN:216,_RNCNvMs2_NtNtCseXwexsNt0j5_10ditto_core16runtime_registry8snapshotNtB7_29RuntimeCapabilityBindingEntry12from_binding0Bb_
FN:221,_RNCNvMs2_NtNtCseXwexsNt0j5_10ditto_core16runtime_registry8snapshotNtB7_29RuntimeCapabilityBindingEntry12from_bindings_0Bb_
FN:71,_RNCNvMs_NtNtCseXwexsNt0j5_10ditto_core16runtime_registry8snapshotNtB6_28RuntimeRegistryProviderEntry11from_plugin0Ba_
FN:83,_RNCNvMs_NtNtCseXwexsNt0j5_10ditto_core16runtime_registry8snapshotNtB6_28RuntimeRegistryProviderEntry11from_plugins0_0Ba_
FN:85,_RNCNvMs_NtNtCseXwexsNt0j5_10ditto_core16runtime_registry8snapshotNtB6_28RuntimeRegistryProviderEntry11from_plugins1_0Ba_
FN:78,_RNCNvMs_NtNtCseXwexsNt0j5_10ditto_core16runtime_registry8snapshotNtB6_28RuntimeRegistryProviderEntry11from_plugins_0Ba_
FN:114,_RNCNvMs_NtNtCseXwexsNt0j5_10ditto_core16runtime_registry8snapshotNtB6_28RuntimeRegistryProviderEntry5model0Ba_
FN:20,_RNvMNtNtCseXwexsNt0j5_10ditto_core16runtime_registry8snapshotNtB2_23RuntimeRegistrySnapshot13from_registry
FN:34,_RNvMNtNtCseXwexsNt0j5_10ditto_core16runtime_registry8snapshotNtB2_23RuntimeRegistrySnapshot8provider
FN:30,_RNvMNtNtCseXwexsNt0j5_10ditto_core16runtime_registry8snapshotNtB2_23RuntimeRegistrySnapshot9providers
FN:141,_RNvMs0_NtNtCseXwexsNt0j5_10ditto_core16runtime_registry8snapshotNtB5_25RuntimeRegistryModelEntry10from_model
FN:137,_RNvMs0_NtNtCseXwexsNt0j5_10ditto_core16runtime_registry8snapshotNtB5_25RuntimeRegistryModelEntry5model
FN:133,_RNvMs0_NtNtCseXwexsNt0j5_10ditto_core16runtime_registry8snapshotNtB5_25RuntimeRegistryModelEntry8provider
FN:186,_RNvMs1_NtNtCseXwexsNt0j5_10ditto_core16runtime_registry8snapshotNtB5_28RuntimeCapabilityStatusEntry15from_descriptor
FN:204,_RNvMs2_NtNtCseXwexsNt0j5_10ditto_core16runtime_registry8snapshotNtB5_29RuntimeCapabilityBindingEntry12from_binding
FN:237,_RNvMs3_NtNtCseXwexsNt0j5_10ditto_core16runtime_registry8snapshotNtB5_20RuntimeAuthHintEntry9from_hint
FN:57,_RNvMs_NtNtCseXwexsNt0j5_10ditto_core16runtime_registry8snapshotNtB4_28RuntimeRegistryProviderEntry11from_plugin
FN:111,_RNvMs_NtNtCseXwexsNt0j5_10ditto_core16runtime_registry8snapshotNtB4_28RuntimeRegistryProviderEntry5model
FN:107,_RNvMs_NtNtCseXwexsNt0j5_10ditto_core16runtime_registry8snapshotNtB4_28RuntimeRegistryProviderEntry8provider
FN:252,_RNvNtNtCseXwexsNt0j5_10ditto_core16runtime_registry8snapshot16auth_method_name
FN:265,_RNvNtNtCseXwexsNt0j5_10ditto_core16runtime_registry8snapshot19provider_class_name
FN:248,_RNvNtNtCseXwexsNt0j5_10ditto_core16runtime_registry8snapshot24builtin_runtime_registry
FN:275,_RNvNtNtCseXwexsNt0j5_10ditto_core16runtime_registry8snapshot29provider_protocol_family_name
FN:292,_RNvNtNtCseXwexsNt0j5_10ditto_core16runtime_registry8snapshot37capability_implementation_status_name
FN:312,_RNvNtNtCseXwexsNt0j5_10ditto_core16runtime_registry8snapshot16http_method_name
FN:303,_RNvNtNtCseXwexsNt0j5_10ditto_core16runtime_registry8snapshot24verification_status_name
FNDA:0,_RNCNvMNtNtCseXwexsNt0j5_10ditto_core16runtime_registry8snapshotNtB4_23RuntimeRegistrySnapshot13from_registry0B8_
FNDA:1,_RNCNvMNtNtCseXwexsNt0j5_10ditto_core16runtime_registry8snapshotNtB4_23RuntimeRegistrySnapshot8provider0B8_
FNDA:0,_RNCNvMs0_NtNtCseXwexsNt0j5_10ditto_core16runtime_registry8snapshotNtB7_25RuntimeRegistryModelEntry10from_model0Bb_
FNDA:0,_RNCNvMs0_NtNtCseXwexsNt0j5_10ditto_core16runtime_registry8snapshotNtB7_25RuntimeRegistryModelEntry10from_models_0Bb_
FNDA:1,_RNCNvMs2_NtNtCseXwexsNt0j5_10ditto_core16runtime_registry8snapshotNtB7_29RuntimeCapabilityBindingEntry12from_binding0Bb_
FNDA:1,_RNCNvMs2_NtNtCseXwexsNt0j5_10ditto_core16runtime_registry8snapshotNtB7_29RuntimeCapabilityBindingEntry12from_bindings_0Bb_
FNDA:0,_RNCNvMs_NtNtCseXwexsNt0j5_10ditto_core16runtime_registry8snapshotNtB6_28RuntimeRegistryProviderEntry11from_plugin0Ba_
FNDA:0,_RNCNvMs_NtNtCseXwexsNt0j5_10ditto_core16runtime_registry8snapshotNtB6_28RuntimeRegistryProviderEntry11from_plugins0_0Ba_
FNDA:0,_RNCNvMs_NtNtCseXwexsNt0j5_10ditto_core16runtime_registry8snapshotNtB6_28RuntimeRegistryProviderEntry11from_plugins1_0Ba_
FNDA:0,_RNCNvMs_NtNtCseXwexsNt0j5_10ditto_core16runtime_registry8snapshotNtB6_28RuntimeRegistryProviderEntry11from_plugins_0Ba_
FNDA:0,_RNCNvMs_NtNtCseXwexsNt0j5_10ditto_core16runtime_registry8snapshotNtB6_28RuntimeRegistryProviderEntry5model0Ba_
FNDA:1,_RNvMNtNtCseXwexsNt0j5_10ditto_core16runtime_registry8snapshotNtB2_23RuntimeRegistrySnapshot13from_registry
FNDA:1,_RNvMNtNtCseXwexsNt0j5_10ditto_core16runtime_registry8snapshotNtB2_23RuntimeRegistrySnapshot8provider
FNDA:0,_RNvMNtNtCseXwexsNt0j5_10ditto_core16runtime_registry8snapshotNtB2_23RuntimeRegistrySnapshot9providers
FNDA:0,_RNvMs0_NtNtCseXwexsNt0j5_10ditto_core16runtime_registry8snapshotNtB5_25RuntimeRegistryModelEntry10from_model
FNDA:0,_RNvMs0_NtNtCseXwexsNt0j5_10ditto_core16runtime_registry8snapshotNtB5_25RuntimeRegistryModelEntry5model
FNDA:0,_RNvMs0_NtNtCseXwexsNt0j5_10ditto_core16runtime_registry8snapshotNtB5_25RuntimeRegistryModelEntry8provider
FNDA:1,_RNvMs1_NtNtCseXwexsNt0j5_10ditto_core16runtime_registry8snapshotNtB5_28RuntimeCapabilityStatusEntry15from_descriptor
FNDA:1,_RNvMs2_NtNtCseXwexsNt0j5_10ditto_core16runtime_registry8snapshotNtB5_29RuntimeCapabilityBindingEntry12from_binding
FNDA:1,_RNvMs3_NtNtCseXwexsNt0j5_10ditto_core16runtime_registry8snapshotNtB5_20RuntimeAuthHintEntry9from_hint
FNDA:1,_RNvMs_NtNtCseXwexsNt0j5_10ditto_core16runtime_registry8snapshotNtB4_28RuntimeRegistryProviderEntry11from_plugin
FNDA:0,_RNvMs_NtNtCseXwexsNt0j5_10ditto_core16runtime_registry8snapshotNtB4_28RuntimeRegistryProviderEntry5model
FNDA:1,_RNvMs_NtNtCseXwexsNt0j5_10ditto_core16runtime_registry8snapshotNtB4_28RuntimeRegistryProviderEntry8provider
FNDA:4,_RNvNtNtCseXwexsNt0j5_10ditto_core16runtime_registry8snapshot16auth_method_name
FNDA:1,_RNvNtNtCseXwexsNt0j5_10ditto_core16runtime_registry8snapshot19provider_class_name
FNDA:1,_RNvNtNtCseXwexsNt0j5_10ditto_core16runtime_registry8snapshot24builtin_runtime_registry
FNDA:2,_RNvNtNtCseXwexsNt0j5_10ditto_core16runtime_registry8snapshot29provider_protocol_family_name
FNDA:1,_RNvNtNtCseXwexsNt0j5_10ditto_core16runtime_registry8snapshot37capability_implementation_status_name
FNDA:0,_RNvNtNtCseXwexsNt0j5_10ditto_core16runtime_registry8snapshot16http_method_name
FNDA:0,_RNvNtNtCseXwexsNt0j5_10ditto_core16runtime_registry8snapshot24verification_status_name
FNF:30
FNH:15
DA:20,1
DA:21,1
DA:22,1
DA:23,1
DA:24,1
DA:25,1
DA:26,1
DA:27,1
DA:28,1
DA:30,0
DA:31,0
DA:32,0
DA:34,1
DA:35,1
DA:36,1
DA:37,1
DA:38,1
DA:57,1
DA:58,1
DA:59,1
DA:60,1
DA:61,1
DA:62,1
DA:63,1
DA:64,1
DA:66,1
DA:67,1
DA:68,1
DA:69,1
DA:70,1
DA:71,1
DA:73,1
DA:74,1
DA:75,1
DA:76,1
DA:77,1
DA:78,1
DA:80,1
DA:81,1
DA:82,1
DA:83,1
DA:84,1
DA:85,1
DA:87,1
DA:88,1
DA:89,1
DA:90,1
DA:91,1
DA:92,1
DA:93,1
DA:94,1
DA:95,1
DA:96,1
DA:97,1
DA:98,1
DA:99,1
DA:100,1
DA:101,1
DA:102,1
DA:103,1
DA:104,1
DA:105,1
DA:107,1
DA:108,1
DA:109,1
DA:111,0
DA:112,0
DA:113,0
DA:114,0
DA:115,0
DA:133,0
DA:134,0
DA:135,0
DA:137,0
DA:138,0
DA:139,0
DA:141,0
DA:142,0
DA:143,0
DA:144,0
DA:145,0
DA:146,0
DA:147,0
DA:148,0
DA:149,0
DA:150,0
DA:151,0
DA:153,0
DA:154,0
DA:155,0
DA:156,0
DA:157,0
DA:158,0
DA:161,0
DA:162,0
DA:163,0
DA:164,0
DA:165,0
DA:166,0
DA:167,0
DA:168,0
DA:169,0
DA:170,0
DA:171,0
DA:172,0
DA:173,0
DA:174,0
DA:176,0
DA:186,1
DA:187,1
DA:188,1
DA:189,1
DA:190,1
DA:191,1
DA:204,1
DA:206,1
DA:207,1
DA:208,1
DA:209,1
DA:210,1
DA:211,1
DA:212,1
DA:213,1
DA:214,1
DA:215,1
DA:216,1
DA:217,1
DA:218,1
DA:219,1
DA:220,1
DA:221,1
DA:222,1
DA:224,1
DA:237,1
DA:238,1
DA:239,1
DA:240,1
DA:241,1
DA:242,1
DA:243,1
DA:244,1
DA:245,1
DA:248,1
DA:249,1
DA:250,1
DA:252,4
DA:253,4
DA:254,2
DA:255,0
DA:256,1
DA:257,1
DA:258,0
DA:259,0
DA:260,0
DA:261,0
DA:263,4
DA:265,1
DA:266,1
DA:267,0
DA:268,0
DA:269,0
DA:270,1
DA:271,0
DA:273,1
DA:275,2
DA:276,2
DA:277,2
DA:278,0
DA:279,0
DA:280,0
DA:281,0
DA:282,0
DA:283,0
DA:284,0
DA:285,0
DA:286,0
DA:287,0
DA:288,0
DA:290,2
DA:292,1
DA:293,1
DA:294,1
DA:295,1
DA:296,1
DA:297,0
DA:298,0
DA:300,1
DA:303,0
DA:304,0
DA:305,0
DA:306,0
DA:307,0
DA:309,0
DA:312,0
DA:313,0
DA:314,0
DA:315,0
DA:316,0
DA:317,0
DA:319,0
BRF:0
BRH:0
LF:211
LH:122
end_of_record
SF:/root/autodl-tmp/zjj/p/ditto-llm/crates/ditto-core/src/session_transport/policy.rs
FN:26,_RNvNtNtCseXwexsNt0j5_10ditto_core17session_transport6policy26resolve_websocket_base_url
FNDA:2,_RNvNtNtCseXwexsNt0j5_10ditto_core17session_transport6policy26resolve_websocket_base_url
FNF:1
FNH:1
DA:26,2
DA:27,2
DA:28,2
DA:29,1
DA:30,1
DA:31,1
DA:32,1
DA:33,1
DA:34,1
DA:35,1
DA:36,1
DA:37,1
DA:38,1
DA:39,0
DA:40,0
DA:41,0
DA:42,0
DA:43,0
DA:44,2
BRF:0
BRH:0
LF:19
LH:14
end_of_record
SF:/root/autodl-tmp/zjj/p/ditto-llm/crates/ditto-core/src/session_transport/sse.rs
FN:153,_RINvNtNtCseXwexsNt0j5_10ditto_core17session_transport3sse27sse_data_stream_from_readerINtNtNtNtCsp77RDs5XIs_5tokio2io4util10buf_reader9BufReaderINtNtNtCshuZ8DrdE5Hz_10tokio_util2io13stream_reader12StreamReaderINtNtNtCsfDyQ4Bvktcn_12futures_util6stream10try_stream6MapErrINtNtCsgOpRciCUmRY_14http_body_util6stream14BodyDataStreamINtNtNtB4p_11combinators7map_err6MapErrINtNtB5l_8box_body7BoxBodyNtNtCs4qZJk8iYjjS_5bytes5bytes5BytesINtNtCsdB7fS8jepxw_5alloc5boxed3BoxDNtNtCs7dTDQl1DYhd_4core5error5ErrorNtNtB7x_6marker4SendNtB84_4SyncEL_EEINvNtCs7MKOl18sNtF_7reqwest5error6decodeB6T_EEEINvMs5_NtNtCs9hLsKkECTMM_3std2io5errorNtB9u_5Error5otherNtB8F_5ErrorEEB6j_EEEB6_
FN:25,_RINvNtNtCseXwexsNt0j5_10ditto_core17session_transport3sse28read_next_line_bytes_limitedINtNtNtNtCsp77RDs5XIs_5tokio2io4util10buf_reader9BufReaderINtNtNtCshuZ8DrdE5Hz_10tokio_util2io13stream_reader12StreamReaderINtNtNtCsfDyQ4Bvktcn_12futures_util6stream10try_stream6MapErrINtNtCsgOpRciCUmRY_14http_body_util6stream14BodyDataStreamINtNtNtB4q_11combinators7map_err6MapErrINtNtB5m_8box_body7BoxBodyNtNtCs4qZJk8iYjjS_5bytes5bytes5BytesINtNtCsdB7fS8jepxw_5alloc5boxed3BoxDNtNtCs7dTDQl1DYhd_4core5error5ErrorNtNtB7y_6marker4SendNtB85_4SyncEL_EEINvNtCs7MKOl18sNtF_7reqwest5error6decodeB6U_EEEINvMs5_NtNtCs9hLsKkECTMM_3std2io5errorNtB9v_5Error5otherNtB8G_5ErrorEEB6k_EEEB6_
FN:65,_RINvNtNtCseXwexsNt0j5_10ditto_core17session_transport3sse30read_next_sse_data_with_limitsINtNtNtNtCsp77RDs5XIs_5tokio2io4util10buf_reader9BufReaderINtNtNtCshuZ8DrdE5Hz_10tokio_util2io13stream_reader12StreamReaderINtNtNtCsfDyQ4Bvktcn_12futures_util6stream10try_stream6MapErrINtNtCsgOpRciCUmRY_14http_body_util6stream14BodyDataStreamINtNtNtB4s_11combinators7map_err6MapErrINtNtB5o_8box_body7BoxBodyNtNtCs4qZJk8iYjjS_5bytes5bytes5BytesINtNtCsdB7fS8jepxw_5alloc5boxed3BoxDNtNtCs7dTDQl1DYhd_4core5error5ErrorNtNtB7A_6marker4SendNtB87_4SyncEL_EEINvNtCs7MKOl18sNtF_7reqwest5error6decodeB6W_EEEINvMs5_NtNtCs9hLsKkECTMM_3std2io5errorNtB9x_5Error5otherNtB8I_5ErrorEEB6m_EEEB6_
FN:133,_RINvNtNtCseXwexsNt0j5_10ditto_core17session_transport3sse39sse_data_stream_from_reader_with_limitsINtNtNtNtCsp77RDs5XIs_5tokio2io4util10buf_reader9BufReaderINtNtNtCshuZ8DrdE5Hz_10tokio_util2io13stream_reader12StreamReaderINtNtNtCsfDyQ4Bvktcn_12futures_util6stream10try_stream6MapErrINtNtCsgOpRciCUmRY_14http_body_util6stream14BodyDataStreamINtNtNtB4B_11combinators7map_err6MapErrINtNtB5x_8box_body7BoxBodyNtNtCs4qZJk8iYjjS_5bytes5bytes5BytesINtNtCsdB7fS8jepxw_5alloc5boxed3BoxDNtNtCs7dTDQl1DYhd_4core5error5ErrorNtNtB7J_6marker4SendNtB8g_4SyncEL_EEINvNtCs7MKOl18sNtF_7reqwest5error6decodeB75_EEEINvMs5_NtNtCs9hLsKkECTMM_3std2io5errorNtB9G_5Error5otherNtB8R_5ErrorEEB6v_EEEB6_
FN:32,_RNCINvNtNtCseXwexsNt0j5_10ditto_core17session_transport3sse28read_next_line_bytes_limitedINtNtNtNtCsp77RDs5XIs_5tokio2io4util10buf_reader9BufReaderINtNtNtCshuZ8DrdE5Hz_10tokio_util2io13stream_reader12StreamReaderINtNtNtCsfDyQ4Bvktcn_12futures_util6stream10try_stream6MapErrINtNtCsgOpRciCUmRY_14http_body_util6stream14BodyDataStreamINtNtNtB4s_11combinators7map_err6MapErrINtNtB5o_8box_body7BoxBodyNtNtCs4qZJk8iYjjS_5bytes5bytes5BytesINtNtCsdB7fS8jepxw_5alloc5boxed3BoxDNtNtCs7dTDQl1DYhd_4core5error5ErrorNtNtB7A_6marker4SendNtB87_4SyncEL_EEINvNtCs7MKOl18sNtF_7reqwest5error6decodeB6W_EEEINvMs5_NtNtCs9hLsKkECTMM_3std2io5errorNtB9x_5Error5otherNtB8I_5ErrorEEB6m_EEE0B8_
FN:73,_RNCINvNtNtCseXwexsNt0j5_10ditto_core17session_transport3sse30read_next_sse_data_with_limitsINtNtNtNtCsp77RDs5XIs_5tokio2io4util10buf_reader9BufReaderINtNtNtCshuZ8DrdE5Hz_10tokio_util2io13stream_reader12StreamReaderINtNtNtCsfDyQ4Bvktcn_12futures_util6stream10try_stream6MapErrINtNtCsgOpRciCUmRY_14http_body_util6stream14BodyDataStreamINtNtNtB4u_11combinators7map_err6MapErrINtNtB5q_8box_body7BoxBodyNtNtCs4qZJk8iYjjS_5bytes5bytes5BytesINtNtCsdB7fS8jepxw_5alloc5boxed3BoxDNtNtCs7dTDQl1DYhd_4core5error5ErrorNtNtB7C_6marker4SendNtB89_4SyncEL_EEINvNtCs7MKOl18sNtF_7reqwest5error6decodeB6Y_EEEINvMs5_NtNtCs9hLsKkECTMM_3std2io5errorNtB9z_5Error5otherNtB8K_5ErrorEEB6o_EEE0B8_
FN:149,_RNCINvNtNtCseXwexsNt0j5_10ditto_core17session_transport3sse39sse_data_stream_from_reader_with_limitsINtNtNtNtCsp77RDs5XIs_5tokio2io4util10buf_reader9BufReaderINtNtNtCshuZ8DrdE5Hz_10tokio_util2io13stream_reader12StreamReaderINtNtNtCsfDyQ4Bvktcn_12futures_util6stream10try_stream6MapErrINtNtCsgOpRciCUmRY_14http_body_util6stream14BodyDataStreamINtNtNtB4D_11combinators7map_err6MapErrINtNtB5z_8box_body7BoxBodyNtNtCs4qZJk8iYjjS_5bytes5bytes5BytesINtNtCsdB7fS8jepxw_5alloc5boxed3BoxDNtNtCs7dTDQl1DYhd_4core5error5ErrorNtNtB7L_6marker4SendNtB8i_4SyncEL_EEINvNtCs7MKOl18sNtF_7reqwest5error6decodeB77_EEEINvMs5_NtNtCs9hLsKkECTMM_3std2io5errorNtB9I_5Error5otherNtB8T_5ErrorEEB6x_EEE0B8_
FN:47,_RNCNCINvNtNtCseXwexsNt0j5_10ditto_core17session_transport3sse28read_next_line_bytes_limitedINtNtNtNtCsp77RDs5XIs_5tokio2io4util10buf_reader9BufReaderINtNtNtCshuZ8DrdE5Hz_10tokio_util2io13stream_reader12StreamReaderINtNtNtCsfDyQ4Bvktcn_12futures_util6stream10try_stream6MapErrINtNtCsgOpRciCUmRY_14http_body_util6stream14BodyDataStreamINtNtNtB4u_11combinators7map_err6MapErrINtNtB5q_8box_body7BoxBodyNtNtCs4qZJk8iYjjS_5bytes5bytes5BytesINtNtCsdB7fS8jepxw_5alloc5boxed3BoxDNtNtCs7dTDQl1DYhd_4core5error5ErrorNtNtB7C_6marker4SendNtB89_4SyncEL_EEINvNtCs7MKOl18sNtF_7reqwest5error6decodeB6Y_EEEINvMs5_NtNtCs9hLsKkECTMM_3std2io5errorNtB9z_5Error5otherNtB8K_5ErrorEEB6o_EEE00Ba_
FN:48,_RNCNCINvNtNtCseXwexsNt0j5_10ditto_core17session_transport3sse28read_next_line_bytes_limitedINtNtNtNtCsp77RDs5XIs_5tokio2io4util10buf_reader9BufReaderINtNtNtCshuZ8DrdE5Hz_10tokio_util2io13stream_reader12StreamReaderINtNtNtCsfDyQ4Bvktcn_12futures_util6stream10try_stream6MapErrINtNtCsgOpRciCUmRY_14http_body_util6stream14BodyDataStreamINtNtNtB4u_11combinators7map_err6MapErrINtNtB5q_8box_body7BoxBodyNtNtCs4qZJk8iYjjS_5bytes5bytes5BytesINtNtCsdB7fS8jepxw_5alloc5boxed3BoxDNtNtCs7dTDQl1DYhd_4core5error5ErrorNtNtB7C_6marker4SendNtB89_4SyncEL_EEINvNtCs7MKOl18sNtF_7reqwest5error6decodeB6Y_EEEINvMs5_NtNtCs9hLsKkECTMM_3std2io5errorNtB9z_5Error5otherNtB8K_5ErrorEEB6o_EEE0s_0Ba_
FN:85,_RNCNCINvNtNtCseXwexsNt0j5_10ditto_core17session_transport3sse30read_next_sse_data_with_limitsINtNtNtNtCsp77RDs5XIs_5tokio2io4util10buf_reader9BufReaderINtNtNtCshuZ8DrdE5Hz_10tokio_util2io13stream_reader12StreamReaderINtNtNtCsfDyQ4Bvktcn_12futures_util6stream10try_stream6MapErrINtNtCsgOpRciCUmRY_14http_body_util6stream14BodyDataStreamINtNtNtB4w_11combinators7map_err6MapErrINtNtB5s_8box_body7BoxBodyNtNtCs4qZJk8iYjjS_5bytes5bytes5BytesINtNtCsdB7fS8jepxw_5alloc5boxed3BoxDNtNtCs7dTDQl1DYhd_4core5error5ErrorNtNtB7E_6marker4SendNtB8b_4SyncEL_EEINvNtCs7MKOl18sNtF_7reqwest5error6decodeB70_EEEINvMs5_NtNtCs9hLsKkECTMM_3std2io5errorNtB9B_5Error5otherNtB8M_5ErrorEEB6q_EEE00Ba_
FN:97,_RNCNCINvNtNtCseXwexsNt0j5_10ditto_core17session_transport3sse30read_next_sse_data_with_limitsINtNtNtNtCsp77RDs5XIs_5tokio2io4util10buf_reader9BufReaderINtNtNtCshuZ8DrdE5Hz_10tokio_util2io13stream_reader12StreamReaderINtNtNtCsfDyQ4Bvktcn_12futures_util6stream10try_stream6MapErrINtNtCsgOpRciCUmRY_14http_body_util6stream14BodyDataStreamINtNtNtB4w_11combinators7map_err6MapErrINtNtB5s_8box_body7BoxBodyNtNtCs4qZJk8iYjjS_5bytes5bytes5BytesINtNtCsdB7fS8jepxw_5alloc5boxed3BoxDNtNtCs7dTDQl1DYhd_4core5error5ErrorNtNtB7E_6marker4SendNtB8b_4SyncEL_EEINvNtCs7MKOl18sNtF_7reqwest5error6decodeB70_EEEINvMs5_NtNtCs9hLsKkECTMM_3std2io5errorNtB9B_5Error5otherNtB8M_5ErrorEEB6q_EEE0s_0Ba_
FN:142,_RNCNCINvNtNtCseXwexsNt0j5_10ditto_core17session_transport3sse39sse_data_stream_from_reader_with_limitsINtNtNtNtCsp77RDs5XIs_5tokio2io4util10buf_reader9BufReaderINtNtNtCshuZ8DrdE5Hz_10tokio_util2io13stream_reader12StreamReaderINtNtNtCsfDyQ4Bvktcn_12futures_util6stream10try_stream6MapErrINtNtCsgOpRciCUmRY_14http_body_util6stream14BodyDataStreamINtNtNtB4F_11combinators7map_err6MapErrINtNtB5B_8box_body7BoxBodyNtNtCs4qZJk8iYjjS_5bytes5bytes5BytesINtNtCsdB7fS8jepxw_5alloc5boxed3BoxDNtNtCs7dTDQl1DYhd_4core5error5ErrorNtNtB7N_6marker4SendNtB8k_4SyncEL_EEINvNtCs7MKOl18sNtF_7reqwest5error6decodeB79_EEEINvMs5_NtNtCs9hLsKkECTMM_3std2io5errorNtB9K_5Error5otherNtB8V_5ErrorEEB6z_EEE00Ba_
FN:223,_RNvNtNtCseXwexsNt0j5_10ditto_core17session_transport3sse29sse_data_stream_from_response
FN:17,_RNvXNtNtCseXwexsNt0j5_10ditto_core17session_transport3sseNtB2_9SseLimitsNtNtCs7dTDQl1DYhd_4core7default7Default7default
FN:162,_RINvNtNtCseXwexsNt0j5_10ditto_core17session_transport3sse26sse_data_stream_from_linespEB6_
FN:219,_RNCINvNtNtCseXwexsNt0j5_10ditto_core17session_transport3sse26sse_data_stream_from_linespE0B8_
FN:170,_RNCNCINvNtNtCseXwexsNt0j5_10ditto_core17session_transport3sse26sse_data_stream_from_linespE00Ba_
FNDA:0,_RINvNtNtCseXwexsNt0j5_10ditto_core17session_transport3sse27sse_data_stream_from_readerINtNtNtNtCsp77RDs5XIs_5tokio2io4util10buf_reader9BufReaderINtNtNtCshuZ8DrdE5Hz_10tokio_util2io13stream_reader12StreamReaderINtNtNtCsfDyQ4Bvktcn_12futures_util6stream10try_stream6MapErrINtNtCsgOpRciCUmRY_14http_body_util6stream14BodyDataStreamINtNtNtB4p_11combinators7map_err6MapErrINtNtB5l_8box_body7BoxBodyNtNtCs4qZJk8iYjjS_5bytes5bytes5BytesINtNtCsdB7fS8jepxw_5alloc5boxed3BoxDNtNtCs7dTDQl1DYhd_4core5error5ErrorNtNtB7x_6marker4SendNtB84_4SyncEL_EEINvNtCs7MKOl18sNtF_7reqwest5error6decodeB6T_EEEINvMs5_NtNtCs9hLsKkECTMM_3std2io5errorNtB9u_5Error5otherNtB8F_5ErrorEEB6j_EEEB6_
FNDA:0,_RINvNtNtCseXwexsNt0j5_10ditto_core17session_transport3sse28read_next_line_bytes_limitedINtNtNtNtCsp77RDs5XIs_5tokio2io4util10buf_reader9BufReaderINtNtNtCshuZ8DrdE5Hz_10tokio_util2io13stream_reader12StreamReaderINtNtNtCsfDyQ4Bvktcn_12futures_util6stream10try_stream6MapErrINtNtCsgOpRciCUmRY_14http_body_util6stream14BodyDataStreamINtNtNtB4q_11combinators7map_err6MapErrINtNtB5m_8box_body7BoxBodyNtNtCs4qZJk8iYjjS_5bytes5bytes5BytesINtNtCsdB7fS8jepxw_5alloc5boxed3BoxDNtNtCs7dTDQl1DYhd_4core5error5ErrorNtNtB7y_6marker4SendNtB85_4SyncEL_EEINvNtCs7MKOl18sNtF_7reqwest5error6decodeB6U_EEEINvMs5_NtNtCs9hLsKkECTMM_3std2io5errorNtB9v_5Error5otherNtB8G_5ErrorEEB6k_EEEB6_
FNDA:0,_RINvNtNtCseXwexsNt0j5_10ditto_core17session_transport3sse30read_next_sse_data_with_limitsINtNtNtNtCsp77RDs5XIs_5tokio2io4util10buf_reader9BufReaderINtNtNtCshuZ8DrdE5Hz_10tokio_util2io13stream_reader12StreamReaderINtNtNtCsfDyQ4Bvktcn_12futures_util6stream10try_stream6MapErrINtNtCsgOpRciCUmRY_14http_body_util6stream14BodyDataStreamINtNtNtB4s_11combinators7map_err6MapErrINtNtB5o_8box_body7BoxBodyNtNtCs4qZJk8iYjjS_5bytes5bytes5BytesINtNtCsdB7fS8jepxw_5alloc5boxed3BoxDNtNtCs7dTDQl1DYhd_4core5error5ErrorNtNtB7A_6marker4SendNtB87_4SyncEL_EEINvNtCs7MKOl18sNtF_7reqwest5error6decodeB6W_EEEINvMs5_NtNtCs9hLsKkECTMM_3std2io5errorNtB9x_5Error5otherNtB8I_5ErrorEEB6m_EEEB6_
FNDA:0,_RINvNtNtCseXwexsNt0j5_10ditto_core17session_transport3sse39sse_data_stream_from_reader_with_limitsINtNtNtNtCsp77RDs5XIs_5tokio2io4util10buf_reader9BufReaderINtNtNtCshuZ8DrdE5Hz_10tokio_util2io13stream_reader12StreamReaderINtNtNtCsfDyQ4Bvktcn_12futures_util6stream10try_stream6MapErrINtNtCsgOpRciCUmRY_14http_body_util6stream14BodyDataStreamINtNtNtB4B_11combinators7map_err6MapErrINtNtB5x_8box_body7BoxBodyNtNtCs4qZJk8iYjjS_5bytes5bytes5BytesINtNtCsdB7fS8jepxw_5alloc5boxed3BoxDNtNtCs7dTDQl1DYhd_4core5error5ErrorNtNtB7J_6marker4SendNtB8g_4SyncEL_EEINvNtCs7MKOl18sNtF_7reqwest5error6decodeB75_EEEINvMs5_NtNtCs9hLsKkECTMM_3std2io5errorNtB9G_5Error5otherNtB8R_5ErrorEEB6v_EEEB6_
FNDA:0,_RNCINvNtNtCseXwexsNt0j5_10ditto_core17session_transport3sse28read_next_line_bytes_limitedINtNtNtNtCsp77RDs5XIs_5tokio2io4util10buf_reader9BufReaderINtNtNtCshuZ8DrdE5Hz_10tokio_util2io13stream_reader12StreamReaderINtNtNtCsfDyQ4Bvktcn_12futures_util6stream10try_stream6MapErrINtNtCsgOpRciCUmRY_14http_body_util6stream14BodyDataStreamINtNtNtB4s_11combinators7map_err6MapErrINtNtB5o_8box_body7BoxBodyNtNtCs4qZJk8iYjjS_5bytes5bytes5BytesINtNtCsdB7fS8jepxw_5alloc5boxed3BoxDNtNtCs7dTDQl1DYhd_4core5error5ErrorNtNtB7A_6marker4SendNtB87_4SyncEL_EEINvNtCs7MKOl18sNtF_7reqwest5error6decodeB6W_EEEINvMs5_NtNtCs9hLsKkECTMM_3std2io5errorNtB9x_5Error5otherNtB8I_5ErrorEEB6m_EEE0B8_
FNDA:0,_RNCINvNtNtCseXwexsNt0j5_10ditto_core17session_transport3sse30read_next_sse_data_with_limitsINtNtNtNtCsp77RDs5XIs_5tokio2io4util10buf_reader9BufReaderINtNtNtCshuZ8DrdE5Hz_10tokio_util2io13stream_reader12StreamReaderINtNtNtCsfDyQ4Bvktcn_12futures_util6stream10try_stream6MapErrINtNtCsgOpRciCUmRY_14http_body_util6stream14BodyDataStreamINtNtNtB4u_11combinators7map_err6MapErrINtNtB5q_8box_body7BoxBodyNtNtCs4qZJk8iYjjS_5bytes5bytes5BytesINtNtCsdB7fS8jepxw_5alloc5boxed3BoxDNtNtCs7dTDQl1DYhd_4core5error5ErrorNtNtB7C_6marker4SendNtB89_4SyncEL_EEINvNtCs7MKOl18sNtF_7reqwest5error6decodeB6Y_EEEINvMs5_NtNtCs9hLsKkECTMM_3std2io5errorNtB9z_5Error5otherNtB8K_5ErrorEEB6o_EEE0B8_
FNDA:0,_RNCINvNtNtCseXwexsNt0j5_10ditto_core17session_transport3sse39sse_data_stream_from_reader_with_limitsINtNtNtNtCsp77RDs5XIs_5tokio2io4util10buf_reader9BufReaderINtNtNtCshuZ8DrdE5Hz_10tokio_util2io13stream_reader12StreamReaderINtNtNtCsfDyQ4Bvktcn_12futures_util6stream10try_stream6MapErrINtNtCsgOpRciCUmRY_14http_body_util6stream14BodyDataStreamINtNtNtB4D_11combinators7map_err6MapErrINtNtB5z_8box_body7BoxBodyNtNtCs4qZJk8iYjjS_5bytes5bytes5BytesINtNtCsdB7fS8jepxw_5alloc5boxed3BoxDNtNtCs7dTDQl1DYhd_4core5error5ErrorNtNtB7L_6marker4SendNtB8i_4SyncEL_EEINvNtCs7MKOl18sNtF_7reqwest5error6decodeB77_EEEINvMs5_NtNtCs9hLsKkECTMM_3std2io5errorNtB9I_5Error5otherNtB8T_5ErrorEEB6x_EEE0B8_
FNDA:0,_RNCNCINvNtNtCseXwexsNt0j5_10ditto_core17session_transport3sse28read_next_line_bytes_limitedINtNtNtNtCsp77RDs5XIs_5tokio2io4util10buf_reader9BufReaderINtNtNtCshuZ8DrdE5Hz_10tokio_util2io13stream_reader12StreamReaderINtNtNtCsfDyQ4Bvktcn_12futures_util6stream10try_stream6MapErrINtNtCsgOpRciCUmRY_14http_body_util6stream14BodyDataStreamINtNtNtB4u_11combinators7map_err6MapErrINtNtB5q_8box_body7BoxBodyNtNtCs4qZJk8iYjjS_5bytes5bytes5BytesINtNtCsdB7fS8jepxw_5alloc5boxed3BoxDNtNtCs7dTDQl1DYhd_4core5error5ErrorNtNtB7C_6marker4SendNtB89_4SyncEL_EEINvNtCs7MKOl18sNtF_7reqwest5error6decodeB6Y_EEEINvMs5_NtNtCs9hLsKkECTMM_3std2io5errorNtB9z_5Error5otherNtB8K_5ErrorEEB6o_EEE00Ba_
FNDA:0,_RNCNCINvNtNtCseXwexsNt0j5_10ditto_core17session_transport3sse28read_next_line_bytes_limitedINtNtNtNtCsp77RDs5XIs_5tokio2io4util10buf_reader9BufReaderINtNtNtCshuZ8DrdE5Hz_10tokio_util2io13stream_reader12StreamReaderINtNtNtCsfDyQ4Bvktcn_12futures_util6stream10try_stream6MapErrINtNtCsgOpRciCUmRY_14http_body_util6stream14BodyDataStreamINtNtNtB4u_11combinators7map_err6MapErrINtNtB5q_8box_body7BoxBodyNtNtCs4qZJk8iYjjS_5bytes5bytes5BytesINtNtCsdB7fS8jepxw_5alloc5boxed3BoxDNtNtCs7dTDQl1DYhd_4core5error5ErrorNtNtB7C_6marker4SendNtB89_4SyncEL_EEINvNtCs7MKOl18sNtF_7reqwest5error6decodeB6Y_EEEINvMs5_NtNtCs9hLsKkECTMM_3std2io5errorNtB9z_5Error5otherNtB8K_5ErrorEEB6o_EEE0s_0Ba_
FNDA:0,_RNCNCINvNtNtCseXwexsNt0j5_10ditto_core17session_transport3sse30read_next_sse_data_with_limitsINtNtNtNtCsp77RDs5XIs_5tokio2io4util10buf_reader9BufReaderINtNtNtCshuZ8DrdE5Hz_10tokio_util2io13stream_reader12StreamReaderINtNtNtCsfDyQ4Bvktcn_12futures_util6stream10try_stream6MapErrINtNtCsgOpRciCUmRY_14http_body_util6stream14BodyDataStreamINtNtNtB4w_11combinators7map_err6MapErrINtNtB5s_8box_body7BoxBodyNtNtCs4qZJk8iYjjS_5bytes5bytes5BytesINtNtCsdB7fS8jepxw_5alloc5boxed3BoxDNtNtCs7dTDQl1DYhd_4core5error5ErrorNtNtB7E_6marker4SendNtB8b_4SyncEL_EEINvNtCs7MKOl18sNtF_7reqwest5error6decodeB70_EEEINvMs5_NtNtCs9hLsKkECTMM_3std2io5errorNtB9B_5Error5otherNtB8M_5ErrorEEB6q_EEE00Ba_
FNDA:0,_RNCNCINvNtNtCseXwexsNt0j5_10ditto_core17session_transport3sse30read_next_sse_data_with_limitsINtNtNtNtCsp77RDs5XIs_5tokio2io4util10buf_reader9BufReaderINtNtNtCshuZ8DrdE5Hz_10tokio_util2io13stream_reader12StreamReaderINtNtNtCsfDyQ4Bvktcn_12futures_util6stream10try_stream6MapErrINtNtCsgOpRciCUmRY_14http_body_util6stream14BodyDataStreamINtNtNtB4w_11combinators7map_err6MapErrINtNtB5s_8box_body7BoxBodyNtNtCs4qZJk8iYjjS_5bytes5bytes5BytesINtNtCsdB7fS8jepxw_5alloc5boxed3BoxDNtNtCs7dTDQl1DYhd_4core5error5ErrorNtNtB7E_6marker4SendNtB8b_4SyncEL_EEINvNtCs7MKOl18sNtF_7reqwest5error6decodeB70_EEEINvMs5_NtNtCs9hLsKkECTMM_3std2io5errorNtB9B_5Error5otherNtB8M_5ErrorEEB6q_EEE0s_0Ba_
FNDA:0,_RNCNCINvNtNtCseXwexsNt0j5_10ditto_core17session_transport3sse39sse_data_stream_from_reader_with_limitsINtNtNtNtCsp77RDs5XIs_5tokio2io4util10buf_reader9BufReaderINtNtNtCshuZ8DrdE5Hz_10tokio_util2io13stream_reader12StreamReaderINtNtNtCsfDyQ4Bvktcn_12futures_util6stream10try_stream6MapErrINtNtCsgOpRciCUmRY_14http_body_util6stream14BodyDataStreamINtNtNtB4F_11combinators7map_err6MapErrINtNtB5B_8box_body7BoxBodyNtNtCs4qZJk8iYjjS_5bytes5bytes5BytesINtNtCsdB7fS8jepxw_5alloc5boxed3BoxDNtNtCs7dTDQl1DYhd_4core5error5ErrorNtNtB7N_6marker4SendNtB8k_4SyncEL_EEINvNtCs7MKOl18sNtF_7reqwest5error6decodeB79_EEEINvMs5_NtNtCs9hLsKkECTMM_3std2io5errorNtB9K_5Error5otherNtB8V_5ErrorEEB6z_EEE00Ba_
FNDA:0,_RNvNtNtCseXwexsNt0j5_10ditto_core17session_transport3sse29sse_data_stream_from_response
FNDA:2,_RNvXNtNtCseXwexsNt0j5_10ditto_core17session_transport3sseNtB2_9SseLimitsNtNtCs7dTDQl1DYhd_4core7default7Default7default
FNDA:0,_RINvNtNtCseXwexsNt0j5_10ditto_core17session_transport3sse26sse_data_stream_from_linespEB6_
FNDA:0,_RNCINvNtNtCseXwexsNt0j5_10ditto_core17session_transport3sse26sse_data_stream_from_linespE0B8_
FNDA:0,_RNCNCINvNtNtCseXwexsNt0j5_10ditto_core17session_transport3sse26sse_data_stream_from_linespE00Ba_
FNF:17
FNH:1
DA:17,2
DA:18,2
DA:19,2
DA:20,2
DA:21,2
DA:22,2
DA:25,0
DA:26,0
DA:27,0
DA:28,0
DA:29,0
DA:30,0
DA:31,0
DA:32,0
DA:33,0
DA:34,0
DA:35,0
DA:36,0
DA:37,0
DA:39,0
DA:42,0
DA:43,0
DA:44,0
DA:45,0
DA:47,0
DA:48,0
DA:50,0
DA:51,0
DA:52,0
DA:53,0
DA:54,0
DA:56,0
DA:57,0
DA:59,0
DA:60,0
DA:61,0
DA:63,0
DA:65,0
DA:66,0
DA:67,0
DA:68,0
DA:69,0
DA:70,0
DA:71,0
DA:72,0
DA:73,0
DA:74,0
DA:75,0
DA:76,0
DA:77,0
DA:78,0
DA:80,0
DA:83,0
DA:84,0
DA:85,0
DA:86,0
DA:87,0
DA:88,0
DA:89,0
DA:90,0
DA:91,0
DA:92,0
DA:93,0
DA:94,0
DA:96,0
DA:97,0
DA:98,0
DA:100,0
DA:101,0
DA:102,0
DA:103,0
DA:104,0
DA:105,0
DA:106,0
DA:107,0
DA:108,0
DA:109,0
DA:111,0
DA:112,0
DA:113,0
DA:114,0
DA:115,0
DA:116,0
DA:117,0
DA:118,0
DA:120,0
DA:121,0
DA:122,0
DA:123,0
DA:124,0
DA:125,0
DA:126,0
DA:127,0
DA:128,0
DA:129,0
DA:131,0
DA:133,0
DA:134,0
DA:135,0
DA:136,0
DA:137,0
DA:138,0
DA:140,0
DA:141,0
DA:142,0
DA:143,0
DA:144,0
DA:146,0
DA:147,0
DA:149,0
DA:151,0
DA:153,0
DA:154,0
DA:155,0
DA:157,0
DA:158,0
DA:162,0
DA:163,0
DA:164,0
DA:165,0
DA:166,0
DA:168,0
DA:169,0
DA:170,0
DA:171,0
DA:174,0
DA:175,0
DA:176,0
DA:177,0
DA:178,0
DA:181,0
DA:182,0
DA:183,0
DA:184,0
DA:185,0
DA:186,0
DA:188,0
DA:189,0
DA:190,0
DA:191,0
DA:192,0
DA:193,0
DA:194,0
DA:195,0
DA:196,0
DA:197,0
DA:199,0
DA:200,0
DA:201,0
DA:202,0
DA:203,0
DA:204,0
DA:205,0
DA:206,0
DA:208,0
DA:209,0
DA:210,0
DA:211,0
DA:212,0
DA:213,0
DA:214,0
DA:215,0
DA:216,0
DA:217,0
DA:219,0
DA:221,0
DA:223,0
DA:224,0
DA:225,0
DA:226,0
DA:227,0
DA:228,0
DA:229,0
BRF:0
BRH:0
LF:180
LH:6
end_of_record
SF:/root/autodl-tmp/zjj/p/ditto-llm/crates/ditto-core/src/session_transport/streaming.rs
FN:11,_RNvNtNtCseXwexsNt0j5_10ditto_core17session_transport9streaming15init_sse_stream
FNDA:0,_RNvNtNtCseXwexsNt0j5_10ditto_core17session_transport9streaming15init_sse_stream
FNF:1
FNH:0
DA:11,0
DA:12,0
DA:13,0
DA:14,0
DA:15,0
DA:16,0
DA:17,0
DA:18,0
DA:19,0
DA:20,0
DA:21,0
DA:22,0
DA:23,0
DA:24,0
BRF:0
BRH:0
LF:14
LH:0
end_of_record
SF:/root/autodl-tmp/zjj/p/ditto-llm/crates/ditto-core/src/types/generate_request_support.rs
FN:69,_RNCNvNtNtCseXwexsNt0j5_10ditto_core5types24generate_request_support41warn_unsupported_generate_request_options0B7_
FN:21,_RNvNtNtCseXwexsNt0j5_10ditto_core5types24generate_request_support41warn_unsupported_generate_request_options
FNDA:0,_RNCNvNtNtCseXwexsNt0j5_10ditto_core5types24generate_request_support41warn_unsupported_generate_request_options0B7_
FNDA:0,_RNvNtNtCseXwexsNt0j5_10ditto_core5types24generate_request_support41warn_unsupported_generate_request_options
FNF:2
FNH:0
DA:21,0
DA:22,0
DA:23,0
DA:24,0
DA:25,0
DA:26,0
DA:27,0
DA:28,0
DA:29,0
DA:30,0
DA:31,0
DA:32,0
DA:34,0
DA:35,0
DA:36,0
DA:37,0
DA:38,0
DA:39,0
DA:40,0
DA:41,0
DA:43,0
DA:44,0
DA:45,0
DA:46,0
DA:47,0
DA:48,0
DA:49,0
DA:50,0
DA:52,0
DA:53,0
DA:54,0
DA:55,0
DA:56,0
DA:57,0
DA:59,0
DA:60,0
DA:61,0
DA:62,0
DA:63,0
DA:64,0
DA:66,0
DA:67,0
DA:68,0
DA:69,0
DA:70,0
DA:71,0
DA:72,0
DA:73,0
DA:74,0
DA:75,0
DA:76,0
DA:77,0
DA:78,0
BRF:0
BRH:0
LF:54
LH:0
end_of_record
SF:/root/autodl-tmp/zjj/p/ditto-llm/crates/ditto-core/src/types/video.rs
FN:35,_RNvMNtNtCseXwexsNt0j5_10ditto_core5types5videoNtB2_21VideoGenerationStatus11is_terminal
FNDA:0,_RNvMNtNtCseXwexsNt0j5_10ditto_core5types5videoNtB2_21VideoGenerationStatus11is_terminal
FNF:1
FNH:0
DA:35,0
DA:36,0
DA:37,0
BRF:0
BRH:0
LF:3
LH:0
end_of_record
SF:/root/autodl-tmp/zjj/p/ditto-llm/crates/ditto-core/src/utils/params.rs
FN:16,_RNvNtNtCseXwexsNt0j5_10ditto_core5utils6params23clamped_number_from_f32
FN:60,_RNvNtNtCseXwexsNt0j5_10ditto_core5utils6params23sanitize_stop_sequences
FNDA:0,_RNvNtNtCseXwexsNt0j5_10ditto_core5utils6params23clamped_number_from_f32
FNDA:0,_RNvNtNtCseXwexsNt0j5_10ditto_core5utils6params23sanitize_stop_sequences
FNF:2
FNH:0
DA:16,0
DA:17,0
DA:18,0
DA:19,0
DA:20,0
DA:21,0
DA:22,0
DA:23,0
DA:24,0
DA:25,0
DA:26,0
DA:27,0
DA:28,0
DA:29,0
DA:31,0
DA:32,0
DA:33,0
DA:34,0
DA:35,0
DA:36,0
DA:37,0
DA:38,0
DA:39,0
DA:40,0
DA:41,0
DA:42,0
DA:43,0
DA:44,0
DA:45,0
DA:46,0
DA:48,0
DA:49,0
DA:60,0
DA:61,0
DA:62,0
DA:63,0
DA:64,0
DA:65,0
DA:66,0
DA:68,0
DA:69,0
DA:70,0
DA:71,0
DA:72,0
DA:73,0
DA:74,0
DA:75,0
DA:78,0
DA:79,0
DA:80,0
DA:81,0
DA:82,0
DA:83,0
DA:84,0
DA:85,0
DA:86,0
DA:87,0
DA:88,0
DA:89,0
DA:91,0
DA:92,0
BRF:0
BRH:0
LF:61
LH:0
end_of_record
SF:/root/autodl-tmp/zjj/p/ditto-llm/crates/ditto-core/src/utils/task.rs
FN:4,_RNvMNtNtCseXwexsNt0j5_10ditto_core5utils4taskNtB2_11AbortOnDrop3new
FN:10,_RNvXs_NtNtCseXwexsNt0j5_10ditto_core5utils4taskNtB4_11AbortOnDropNtNtNtCs7dTDQl1DYhd_4core3ops4drop4Drop4drop
FNDA:0,_RNvMNtNtCseXwexsNt0j5_10ditto_core5utils4taskNtB2_11AbortOnDrop3new
FNDA:0,_RNvXs_NtNtCseXwexsNt0j5_10ditto_core5utils4taskNtB4_11AbortOnDropNtNtNtCs7dTDQl1DYhd_4core3ops4drop4Drop4drop
FNF:2
FNH:0
DA:4,0
DA:5,0
DA:6,0
DA:10,0
DA:11,0
DA:12,0
BRF:0
BRH:0
LF:6
LH:0
end_of_record
SF:/root/autodl-tmp/zjj/p/ditto-llm/crates/ditto-core/src/utils/test_support.rs
FN:9,_RNvNtNtCseXwexsNt0j5_10ditto_core5utils12test_support18can_bind_localhost
FN:1,_RNvNtNtCseXwexsNt0j5_10ditto_core5utils12test_support20should_skip_httpmock
FNDA:0,_RNvNtNtCseXwexsNt0j5_10ditto_core5utils12test_support18can_bind_localhost
FNDA:0,_RNvNtNtCseXwexsNt0j5_10ditto_core5utils12test_support20should_skip_httpmock
FNF:2
FNH:0
DA:1,0
DA:2,0
DA:3,0
DA:4,0
DA:5,0
DA:6,0
DA:7,0
DA:9,0
DA:10,0
DA:11,0
DA:12,0
DA:13,0
DA:15,0
DA:16,0
DA:18,0
BRF:0
BRH:0
LF:15
LH:0
end_of_record